(dp0
I0
F0.6773857766482742
sI1
F0.6022277124581675
sI3
F0.4173960263386699
sI5
F0.43045149322282256
sI7
F0.5844687101992867
sI9
F0.6330639439544318
sI11
F0.33948328930395266
sI14
F0.4306626256160627
sI15
F0.5709767956109432
sI16
F0.42861292699007136
sI19
F0.711716725093327
sI21
F0.5124675082943748
sI22
F0.7496289453960019
sI27
F0.4352056625114273
sI29
F0.4282908866235042
sI32
F0.449200477517193
sI33
F0.6376288988138156
sI34
F0.6994211428991629
sI38
F0.34467083891405276
sI42
F0.5896326119278708
sI44
F0.923349920102284
sI45
F0.6262305991274251
sI46
F0.4922561879323709
sI48
F0.5018928094162992
sI50
F0.4682809038055497
sI52
F0.5426322666482903
sI55
F0.699119866420977
sI57
F0.5137017131209972
sI58
F0.4571429977377865
sI63
F0.667249844280627
sI64
F0.602282266180487
sI66
F0.572883663691196
sI68
F0.5313534219475464
sI70
F0.42055135015273903
sI76
F0.6146828225059755
sI81
F0.7138254855819929
sI83
F0.7783064306913425
sI86
F0.24217300389263732
sI87
F0.8293381667231351
sI88
F0.9732853754700752
sI92
F0.4724532297558185
sI96
F0.5281052054253492
sI98
F0.9904261762250429
sI99
F0.7903172569299405
sI100
F0.674539648373533
sI102
F0.5984157241768463
sI104
F0.9238343122785171
sI106
F0.7519991493215241
sI110
F0.6574678421930625
sI114
F0.6144467884300805
sI116
F0.9153586846218752
sI125
F0.9831572392741337
sI126
F0.474738970055627
sI128
F0.6483296470735802
sI131
F0.4437297588667617
sI132
F0.27868558342832234
sI133
F0.9904350232208697
sI135
F0.7513915077359633
sI136
F0.6058475269346815
sI138
F0.4464674810364519
sI140
F0.07945812721219536
sI142
F0.785168983138666
sI144
F0.7763879654811368
sI146
F0.5895059870717081
sI149
F0.34350011516661416
sI150
F0.7017677556058045
sI151
F0.8214670700538127
sI154
F0.9991783761286672
sI156
F0.8154986671701981
sI157
F0.887497521534514
sI163
F0.47667367774991265
sI165
F0.44698033218367306
sI166
F0.29048637382490683
sI171
F0.490685682474163
sI172
F0.6667063515280425
sI174
F0.29101108597487124
sI176
F0.1634623105042319
sI178
F0.36772711177377587
sI184
F0.12054295236229304
sI189
F0.561093557221371
sI190
F0.38049676590506043
sI192
F0.12214953685081957
sI194
F0.1947509781123992
sI196
F0.7901754050335379
sI198
F0.6194288909697451
sI200
F0.29317394833446836
sI203
F0.0641677815237301
sI204
F0.5224641626180413
sI205
F0.45949884464890456
sI208
F0.7530976392557827
sI210
F0.5422105376785653
sI211
F0.3624761734409076
sI220
F0.22512984499249472
sI226
F0.7221079312152873
sI228
F0.4948379339962575
sI229
F1.0
sI243
F0.6878186219922174
sI245
F0.7824548945952564
sI248
F0.4135026143296499
sI249
F0.6810857621230285
sI250
F0.4321179145614482
sI254
F0.4398733025273069
sI258
F0.7021540929099485
sI260
F0.9676720949268605
sI261
F0.632921047746374
sI262
F0.4864329899890505
sI264
F0.5242929223117101
sI266
F0.5500591296985202
sI268
F0.6519861959261192
sI272
F0.49741915172983187
sI276
F0.46791927387733423
sI278
F0.8944243740171222
sI287
F0.9267304118044877
sI288
F0.4561040848535386
sI290
F0.6371273911823441
sI293
F0.12387625183361878
sI294
F0.7161099486526383
sI295
F0.7253790672889755
sI297
F0.6721355311883632
sI298
F0.7401292846327485
sI300
F0.5342554482489796
sI302
F0.5947016385780374
sI304
F0.6982903465798843
sI306
F0.30337925665347854
sI308
F0.9548360945850877
sI311
F0.07640457254378225
sI312
F0.39549488074013417
sI313
F0.33838487595893674
sI316
F0.7347978286160487
sI318
F0.7384646429971685
sI319
F0.5395337992483518
sI326
F0.82233524733724
sI330
F0.7511993707585476
sI332
F0.4761498935757077
sI341
F0.97970491656716
sI342
F0.7663065222901818
sI344
F0.9758770763408114
sI347
F0.6261837087099318
sI348
F0.7192184793574627
sI349
F0.6800432394878837
sI359
F1.0
sI371
F1.0
sI375
F1.0
sI378
F0.744689194450848
sI380
F0.7777466281466032
sI383
F4.332447524824333e-05
sI384
F0.6286439705069192
sI385
F0.5471558762900346
sI389
F0.3811573504917255
sI393
F0.7225356835845329
sI395
F0.9765333849582393
sI396
F0.9644648561264617
sI397
F0.9960593752790935
sI399
F0.7438330253652777
sI401
F0.42241837060210785
sI403
F0.6965175197957965
sI405
F0.5585398753943792
sI406
F0.371705549347903
sI408
F0.48353788355385346
sI410
F0.5501466024648678
sI412
F0.22218865939218535
sI414
F0.42869790754368486
sI416
F0.7768900307286611
sI419
F0.0949833378639546
sI420
F0.5972819940781133
sI421
F0.3205590550739738
sI424
F0.4173396715148854
sI426
F0.11721662360490628
sI427
F0.010823289714258288
sI432
F0.49198796837308023
sI434
F0.18423956470165023
sI437
F0.062121925176825785
sI438
F0.10133329254735371
sI439
F0.12434783724276463
sI443
F0.7509279007577836
sI447
F0.5982089421431478
sI449
F0.3999448930281695
sI450
F0.5425240676301306
sI451
F0.45860372666653676
sI453
F0.0061634092892801015
sI455
F0.004353098567937155
sI457
F0.2492329409998148
sI460
F0.43631626674929047
sI462
F0.5241568288774663
sI463
F0.36055577633468644
sI468
F0.6597544241250247
sI469
F0.4278416142098608
sI471
F0.8651165833902457
sI473
F0.29738917979014406
sI475
F0.08601813541901775
sI481
F0.033034576931885495
sI487
F0.7114223852476714
sI489
F0.5197526243083394
sI490
F0.4703525438577948
sI495
F0.6833961362809787
sI496
F0.6748583054143324
sI498
F0.6739133872440225
sI500
F0.7330051667920034
sI502
F0.8928953451381452
sI508
F0.6345945679901043
sI513
F0.3803682514836435
sI514
F0.23556260551309444
sI516
F0.35540903125396983
sI518
F0.46262930927726226
sI520
F0.8137593446154551
sI522
F0.6427373040682847
sI524
F0.4417942556025135
sI527
F0.35367425392352375
sI528
F0.8280237531327165
sI529
F0.38104753974693184
sI532
F0.12136400239599905
sI534
F0.41857101716164175
sI535
F0.520162130044641
sI544
F0.8933165743902073
sI550
F0.9426071319198974
sI552
F0.7828092875790527
sI553
F1.0
sI567
F0.7603218389381231
sI568
F0.6944329436031875
sI570
F0.8891173365966728
sI572
F0.8881871440634928
sI574
F0.9695550824522271
sI576
F0.7879993074168288
sI578
F0.7674256643748596
sI581
F0.5245772182051532
sI582
F0.7348163991758272
sI583
F0.5862247221683605
sI586
F0.7515575134861963
sI588
F0.8137979328962652
sI589
F0.05207280444981553
sI594
F0.4205653577718067
sI596
F0.7395738967174575
sI599
F0.599745584528902
sI600
F0.49899489907911443
sI601
F0.982330506775612
sI605
F0.3697672967829454
sI609
F0.7824168687874391
sI611
F0.886955555913643
sI612
F0.2492791938073416
sI613
F0.021824938287864484
sI615
F0.5772524833899844
sI617
F0.29272085263714503
sI619
F0.9878447749866361
sI622
F0.9867599562171593
sI624
F0.9898705371407066
sI625
F0.8670804007380878
sI630
F0.9850136067305353
sI631
F1.0
sI633
F0.9830194741237409
sI635
F0.988861771908826
sI637
F1.0
sI643
F0.9272053063667641
sI652
F0.7290258316162616
sI658
F0.5206833199128865
sI660
F0.8451640300976403
sI661
F1.0
sI676
F0.7523566058180586
sI678
F0.5148521990987942
sI679
F0.6549619476552376
sI684
F0.6000880306774834
sI685
F0.8970208458980656
sI687
F0.19051284825707024
sI689
F0.04680826539857176
sI691
F0.8973575312576443
sI697
F0.32855319280566925
sI729
F0.7132820890548416
sI731
F0.5734240894682169
sI734
F0.5028659547723924
sI735
F0.6299697491992762
sI736
F0.6690252856437973
sI740
F0.5409123805288449
sI744
F0.3684447390463366
sI746
F0.9892346649554816
sI747
F0.8188297447607468
sI748
F0.6239133328695567
sI750
F0.5640381298609485
sI752
F0.5531837034157137
sI754
F0.9522507088108064
sI758
F0.3356750878993049
sI762
F0.7239065070795985
sI764
F0.5599785005841048
sI773
F0.6026570730768722
sI774
F0.7078711508840904
sI776
F0.3108827325185408
sI779
F0.07397224255734312
sI780
F0.863216547975432
sI781
F1.0
sI783
F0.7796867846183748
sI784
F0.3722028918929996
sI786
F0.6816082062838827
sI788
F0.7637449656746041
sI790
F0.5474889583592416
sI792
F0.5555969949605686
sI794
F0.9845526684222331
sI797
F0.4209015906575876
sI798
F0.784825385602101
sI799
F0.5727800322789391
sI802
F0.6082215226018222
sI804
F0.6609020239939732
sI805
F0.09097604809888357
sI812
F0.37427030700646813
sI816
F0.4726365520104072
sI818
F0.9618827075830517
sI827
F1.0
sI828
F0.5422637742512348
sI830
F0.22172124897208983
sI833
F0.7013179681624999
sI834
F0.3044449637916521
sI835
F0.8230305971110631
sI845
F0.4805062322286231
sI857
F0.6952269528728037
sI861
F0.035072678917875105
sI863
F3.810728210834995e-94
sI864
F0.8329220335750329
sI866
F0.6440654527329847
sI869
F0.625833054489547
sI870
F0.6388996688763646
sI871
F0.32542204151207016
sI875
F1.0
sI879
F1.0
sI882
F0.8709856777692229
sI883
F0.7474447222527092
sI885
F0.7306346544700217
sI887
F0.9422260615564018
sI889
F0.9289971160304507
sI891
F0.5793059175323759
sI892
F0.4603620264825806
sI894
F0.3453383038305293
sI896
F0.4665995840258932
sI898
F0.9670806095628436
sI900
F0.44017629078254594
sI902
F0.3880195662769252
sI905
F0.014202853847752758
sI906
F0.585524214002741
sI907
F0.39298923312240264
sI910
F0.9150582950968067
sI912
F0.3407290071824248
sI913
F0.1890580422521393
sI918
F0.35143214160314584
sI920
F0.24728138090279184
sI923
F0.3466415748700946
sI924
F0.9876085725424918
sI925
F1.0
sI929
F0.1917621188269516
sI933
F0.11953665548511308
sI935
F0.3048081362056156
sI936
F0.8124882296676028
sI937
F1.0
sI939
F0.7841233087825124
sI941
F0.21322267953802548
sI946
F0.22716729498293542
sI948
F0.23684928626542168
sI949
F0.030984080628759778
sI954
F0.5995031558695209
sI955
F0.03927230420354203
sI957
F0.5411467030485291
sI959
F0.24321430899752083
sI961
F0.0005084800538410382
sI967
F0.0228682292788697
sI974
F0.6156423531439361
sI978
F0.44927248467840497
sI980
F0.4884463757951709
sI989
F0.6500416567739011
sI990
F0.7432248092309626
sI992
F0.6685223709694128
sI995
F0.6889612702309683
sI996
F0.5083800204318477
sI997
F0.9858571754686902
sI1007
F0.19253301933841913
sI1019
F0.30638581921527364
sI1023
F0.04040071497211435
sI1025
F2.4283361152821786e-56
sI1026
F0.5562012635934444
sI1028
F0.6163679323387657
sI1031
F0.904905013796429
sI1032
F0.47625715619236547
sI1033
F0.29297347160004483
sI1037
F0.8191814904742777
sI1041
F0.3353688549250325
sI1043
F1.0
sI1044
F0.3958610936898924
sI1045
F0.6172988751921407
sI1047
F0.3125797085427842
sI1049
F0.6817301796111379
sI1051
F0.9167334105393853
sI1061
F0.6051326486083825
sI1073
F0.5538399867658987
sI1077
F0.01751916045710398
sI1079
F1.4536774485912299e-90
sI1109
F0.535086917839379
sI1113
F0.44154093810597994
sI1115
F0.9764691081195263
sI1124
F1.0
sI1125
F0.454500078010268
sI1127
F0.146278901157759
sI1130
F0.13423722211097083
sI1131
F0.24527045491132057
sI1132
F0.10993689291670633
sI1134
F0.39455904912735595
sI1136
F0.45910713973779466
sI1139
F0.014011338532498016
sI1140
F0.32427882971160144
sI1141
F0.1628705757509762
sI1145
F0.39879117545493353
sI1149
F0.5997407867218959
sI1151
F0.8805111285399063
sI1152
F0.66209234554593
sI1153
F0.983008252884203
sI1155
F0.10703730174666663
sI1157
F0.18445945283349985
sI1159
F0.9996219837611028
sI1163
F0.00027116073219892085
sI1167
F0.09747799804663806
sI1169
F4.5063182536186816e-37
sI1178
F2.1917833040198415e-45
sI1179
F0.802020119013902
sI1181
F0.0648433628128799
sI1184
F0.002667586242119215
sI1185
F0.8499799392870806
sI1186
F1.0
sI1188
F0.6202924577235376
sI1189
F0.27011571102560966
sI1191
F0.548014103189677
sI1193
F0.9942122613311841
sI1195
F0.1817617543490338
sI1197
F0.51420127339703
sI1199
F0.9400564478723064
sI1202
F0.9035038359846342
sI1203
F0.6555635868787348
sI1204
F0.01922065538972789
sI1207
F0.1548580887375394
sI1209
F0.3275460896285438
sI1210
F0.025601442487595175
sI1215
F0.6207077731388755
sI1216
F0.7065079523658729
sI1218
F0.6618114258431447
sI1220
F0.5024706165286051
sI1222
F0.9805940681897446
sI1224
F0.7435841378532511
sI1226
F0.5182868485415717
sI1229
F0.5959664966249714
sI1230
F0.9676676989259795
sI1231
F0.7715875306134359
sI1234
F0.42656436455599295
sI1236
F0.7686901785251568
sI1237
F0.6907670965012196
sI1242
F0.4966343729389179
sI1244
F0.28944412401327546
sI1247
F0.301691973253059
sI1248
F0.8128332998959753
sI1249
F1.0
sI1253
F0.34744808493402274
sI1257
F0.9906390972767118
sI1259
F1.0
sI1260
F0.4596563632213384
sI1261
F1.0
sI1263
F0.3278700847419052
sI1265
F0.28847917689256397
sI1270
F0.22886570169240483
sI1272
F0.7486046799732274
sI1273
F0.2198193330051009
sI1278
F0.8273273248589972
sI1279
F0.8699150888902687
sI1281
F0.9220542587940365
sI1283
F0.8344615733502898
sI1285
F0.6370053691152576
sI1291
F0.14109986952899023
sI1296
F0.8124876177745536
sI1298
F0.9999147553149129
sI1301
F0.9744897877206001
sI1302
F0.9919477885794564
sI1303
F0.9828449349757596
sI1307
F1.0
sI1311
F1.0
sI1314
F0.8558105205528624
sI1315
F0.10433634682317458
sI1317
F0.407779303095503
sI1319
F0.4734271679120141
sI1321
F0.9898022902190476
sI1325
F0.24935635283095853
sI1329
F0.5535833976887703
sI1331
F0.39794726337114694
sI1340
F1.0
sI1341
F0.21755483579611007
sI1343
F0.0411742629807106
sI1346
F0.005432977548357141
sI1347
F0.6400605267537035
sI1348
F1.0
sI1350
F0.9303301044923278
sI1351
F0.7120022656581895
sI1353
F0.7555150560639216
sI1355
F1.0
sI1357
F1.0
sI1359
F1.0
sI1364
F1.0
sI1366
F1.0
sI1369
F0.564713502925181
sI1371
F0.5955639757541711
sI1372
F0.33662361360472914
sI1378
F0.9252978640475964
sI1380
F0.7398695854536239
sI1381
F0.04085829387223057
sI1386
F0.6625134316086118
sI1387
F0.3266766993309207
sI1389
F0.5753534160479151
sI1391
F0.004850153409544779
sI1393
F0.38455343997526004
sI1399
F0.65780037785154
sI1404
F0.7974660582378126
sI1405
F1.0
sI1407
F0.7840085913897779
sI1409
F0.21513172136274855
sI1413
F0.7009625882014443
sI1415
F0.10236107978496763
sI1418
F0.008157951272957964
sI1419
F0.9999973613255378
sI1420
F1.0
sI1425
F0.8085899886867652
sI1426
F1.0
sI1435
F7.695704335233368e-76
sI1441
F1.3863348470604223e-86
sI1443
F9.94646472819581e-59
sI1459
F0.5571280257844377
sI1461
F0.64365253053428
sI1462
F0.5388925946733056
sI1467
F0.5905985821608658
sI1468
F0.6414023339453985
sI1470
F0.7184840629242195
sI1472
F0.025203475890707684
sI1474
F0.6639019960984788
sI1480
F0.8612768579850016
sI1485
F0.4861473274313825
sI1486
F0.4722575125920152
sI1488
F0.4356389874413483
sI1490
F0.6153829216174287
sI1492
F0.38282956472926843
sI1494
F0.391912884976608
sI1496
F0.3210717768074686
sI1499
F0.38194870343813847
sI1500
F0.5854599147581484
sI1501
F0.43253347918099233
sI1504
F0.8285143008432663
sI1506
F0.34120376309208855
sI1507
F0.11119582798873653
sI1516
F0.9533925932495386
sI1522
F0.9725874664273758
sI1524
F0.7875729035280958
sI1525
F1.0
sI1539
F0.674615660114742
sI1540
F0.8555024512115796
sI1542
F0.37110502317124
sI1544
F0.788519288318472
sI1546
F0.972258444201167
sI1548
F0.5128746699747417
sI1550
F0.29278523895449393
sI1553
F0.07510398165731674
sI1554
F0.5908967970271655
sI1555
F0.5188059091113186
sI1558
F0.974319199476349
sI1560
F0.9279797954678255
sI1561
F0.9708247763964708
sI1566
F0.5644878117161322
sI1568
F0.9834041076070795
sI1571
F0.983572748105495
sI1572
F0.9247639966963193
sI1573
F0.9074758841857427
sI1577
F0.7542493368734786
sI1581
F0.6352099249508311
sI1583
F0.536225695759005
sI1584
F0.9635799948540603
sI1585
F0.9597504756656025
sI1587
F0.6125535084862314
sI1589
F1.0
sI1591
F1.0
sI1594
F0.9399838240141549
sI1596
F0.3866709130085275
sI1597
F0.7216447091562955
sI1602
F0.7214053722385064
sI1603
F0.8350332243335443
sI1605
F0.5667346162205635
sI1607
F8.664592794127637e-86
sI1609
F0.7697227250774364
sI1615
F1.0
sI1624
F0.32989399822761334
sI1630
F0.7046524181327866
sI1632
F0.7877319159684744
sI1633
F1.0
sI1648
F0.16839974054360585
sI1650
F0.4731156622287384
sI1651
F0.04738961763770222
sI1656
F0.5013584837353782
sI1657
F0.1465663108894961
sI1659
F0.23438634650323092
sI1661
F0.4640536242158112
sI1663
F0.07282687284546877
sI1669
F4.925250774549356e-77
sI1701
F0.6254196326575605
sI1702
F0.4607824869160848
sI1704
F0.4213845748107252
sI1706
F0.31481946080606366
sI1708
F0.5366448419707143
sI1710
F0.2416181993318521
sI1712
F0.11936337955343022
sI1715
F0.03958182635322604
sI1716
F0.27976551631865765
sI1717
F0.2017931804610377
sI1720
F0.42921177047402714
sI1722
F0.5245085227735085
sI1723
F0.3236707501612867
sI1728
F0.26904942843065666
sI1730
F0.5198657313288818
sI1733
F0.22219833647127318
sI1734
F0.8412745473685493
sI1735
F0.23769642491349247
sI1739
F0.27863703934868156
sI1743
F0.2103140122835371
sI1745
F1.0
sI1746
F0.4394122896248566
sI1747
F0.3689425633792521
sI1749
F0.18276946450004805
sI1751
F0.6175051078708003
sI1753
F0.33224992465023634
sI1756
F0.5943112903386941
sI1758
F0.6052083241965592
sI1759
F0.5782066353357943
sI1764
F0.6960809185053414
sI1765
F0.7422578562938627
sI1767
F0.3060308267448562
sI1769
F8.834235323891978e-49
sI1771
F0.324739815051915
sI1777
F0.4961346170569137
sI1782
F0.32897481472643864
sI1784
F0.8214534947007037
sI1787
F0.2905278251658703
sI1788
F0.9390909296402076
sI1789
F0.5125883416511772
sI1793
F0.06988234077768095
sI1797
F0.4645741790777777
sI1799
F0.7628571068260747
sI1800
F0.9983105108416405
sI1801
F0.9982202048772518
sI1803
F0.9603622913099755
sI1805
F0.9700588957015713
sI1807
F1.0
sI1811
F1.0
sI1815
F1.0
sI1826
F1.0
sI1827
F1.0
sI1832
F1.0
sI1834
F1.0
sI1836
F0.07089365937047237
sI1837
F0.6345567199999661
sI1839
F0.032866103612329556
sI1841
F2.2181357552966757e-87
sI1843
F0.9938370793540282
sI1845
F0.23695299395850225
sI1847
F8.263199609878187e-82
sI1851
F0.6085120730055338
sI1852
F0.41067741759176
sI1855
F1.0
sI1857
F0.8171170029148048
sI1858
F1.0
sI1864
F0.6786389161171339
sI1866
F0.47503567147987247
sI1867
F0.8740813872725718
sI1872
F0.9321043530339796
sI1873
F0.24478066507509982
sI1875
F0.9447944642853422
sI1877
F0.06075392051857116
sI1879
F0.5120251409160255
sI1885
F1.791795793742259e-69
sI1890
F0.2466415709065709
sI1891
F0.025903000025448458
sI1893
F0.011258916853976873
sI1895
F0.1914900603702619
sI1897
F0.023315757297097717
sI1899
F0.49432840625556684
sI1901
F0.6729764861226464
sI1904
F0.601154702869816
sI1905
F0.9759734016520667
sI1906
F0.1160824118990005
sI1909
F6.999202319305696e-68
sI1911
F9.713344461128715e-57
sI1921
F0.2828738198519885
sI1927
F1.0
sI1929
F0.9368902484923249
sI1930
F1.0
sI1948
F0.8628709862147109
sI1954
F0.982226619413346
sI1956
F0.9712216933423232
sI1957
F1.0
sI1972
F0.7501166906314416
sI1974
F0.5182455509932861
sI1975
F0.21771356680905185
sI1980
F0.8095910125850647
sI1981
F0.9244864371154832
sI1983
F0.9027352282602032
sI1985
F0.07651232012972231
sI1987
F0.6177927812839115
sI1993
F0.11370532349038162
sI2026
F0.8487515995809226
sI2028
F0.8277976977179605
sI2029
F0.9575348696262835
sI2034
F0.7798876870084206
sI2035
F0.7590374269102438
sI2037
F0.7605001055247542
sI2039
F0.6397027044733766
sI2041
F0.32274386823177037
sI2047
F0.9859359292916621
sI2052
F0.6666046675589844
sI2053
F0.6909224759502492
sI2055
F0.5415224065062707
sI2057
F0.9944909218292257
sI2059
F0.9770457564202852
sI2061
F0.4093691635553557
sI2063
F0.2896655947846136
sI2066
F0.8994715568013786
sI2067
F0.5141386123586313
sI2068
F0.9034989690578108
sI2071
F0.7270108633233614
sI2073
F0.7513440592157783
sI2074
F0.1051644674626149
sI2083
F1.0
sI2089
F1.0
sI2091
F0.9990332855293513
sI2092
F1.0
sI2137
F0.3492685237917796
sI2143
F0.9923769973012964
sI2145
F0.7908074326436279
sI2146
F1.0
sI2187
F0.581658721543311
sI2189
F0.6685592533966473
sI2192
F0.4336912095568644
sI2193
F0.682809796302985
sI2194
F0.7673900009039853
sI2198
F0.16439616089758033
sI2202
F0.6620282682600735
sI2204
F0.8021350962201665
sI2205
F0.5624443495218387
sI2206
F0.45363213063921165
sI2208
F0.22187292909820375
sI2210
F0.9100519636351783
sI2212
F0.8253942838295755
sI2216
F0.5036580605394155
sI2220
F0.2787590144575171
sI2222
F0.576419155046243
sI2231
F0.8075497710876448
sI2232
F0.5848324955034263
sI2234
F0.5125183634414505
sI2237
F0.24101365558862256
sI2238
F0.1232510864494859
sI2239
F0.6898832472262297
sI2241
F0.6827990954418101
sI2242
F0.6751711002221134
sI2244
F0.6446805792439149
sI2246
F0.8705652715056733
sI2248
F0.819492659839465
sI2250
F0.6316767142375271
sI2252
F0.5614412817033605
sI2255
F0.08137147054603054
sI2256
F0.6336778284644965
sI2257
F0.5776170774808138
sI2260
F0.4378303719030968
sI2262
F0.5751236964327752
sI2263
F0.2644832631722139
sI2270
F0.8872559227135175
sI2274
F0.4941746042610525
sI2276
F0.3480309823869632
sI2285
F0.3318802929842217
sI2286
F0.3546006678680922
sI2288
F0.9473598754691117
sI2291
F1.0
sI2292
F0.22932390559007684
sI2293
F0.679529130985004
sI2303
F0.0962546464597025
sI2315
F0.6556171382990535
sI2319
F0.22341818435791047
sI2321
F2.2713710134237964e-89
sI2322
F0.8337803505558719
sI2324
F0.9617972386154142
sI2327
F1.0
sI2328
F0.914887434897151
sI2329
F0.7573579361704785
sI2333
F0.8920937689086463
sI2337
F0.9467129689482041
sI2339
F0.9305150872985024
sI2340
F0.9765582420149259
sI2341
F0.989050345301636
sI2343
F1.0
sI2347
F0.936647871588683
sI2349
F0.5771673430177899
sI2350
F0.43313895230246247
sI2352
F0.27569993146067684
sI2354
F0.18243164062650835
sI2356
F0.4486688827912232
sI2358
F0.30311309905335265
sI2360
F0.5460095064084673
sI2363
F0.027654679379036796
sI2364
F0.7682241068749165
sI2365
F0.32742781315955305
sI2368
F0.7334367074557635
sI2370
F0.050039925750014286
sI2371
F0.00046473055630560234
sI2376
F0.4316176528941043
sI2378
F0.48374380951064666
sI2381
F0.04020812092080405
sI2382
F0.8904287447635604
sI2383
F0.7690495713087953
sI2387
F0.29697060806405917
sI2391
F0.7770270229970775
sI2393
F0.8724538401593246
sI2394
F0.7120126302105585
sI2395
F0.8148505932118933
sI2397
F0.002581142476782345
sI2399
F0.17443253734938102
sI2401
F0.9237506436965439
sI2404
F0.10096762422053766
sI2406
F0.2766299018235206
sI2407
F0.006909003455055329
sI2412
F0.6925230801851894
sI2413
F0.1260452416522391
sI2415
F0.24032554751184793
sI2417
F5.387847102379272e-34
sI2419
F0.5966671921573705
sI2425
F0.0004175444791545466
sI2432
F0.395784059636928
sI2436
F0.40674619632458525
sI2438
F0.6470346154785341
sI2447
F0.6752516335010808
sI2448
F0.48209608027228146
sI2450
F0.49827796850493644
sI2453
F0.6049605824225648
sI2454
F0.4260713038611196
sI2455
F0.8251552912047888
sI2465
F0.39416203969977254
sI2477
F0.030082054786312963
sI2481
F0.19087967209522555
sI2483
F1.285550435407199e-41
sI2484
F0.4547600817467698
sI2486
F0.6425536894424977
sI2489
F0.6188010033757743
sI2490
F0.27862237672694684
sI2491
F0.394700315888867
sI2495
F0.2590629970884554
sI2499
F0.6749918579588389
sI2501
F0.8305035560174938
sI2502
F0.7841432437566798
sI2503
F0.6621251137179246
sI2505
F0.8472243358079813
sI2507
F0.9297906975596459
sI2509
F0.4043699624528797
sI2519
F0.40008231717353104
sI2531
F0.24714855844601036
sI2535
F0.10516772034371881
sI2537
F6.097165137335993e-95
sI2567
F0.1021840895494874
sI2571
F0.07082463729930695
sI2573
F0.43232142491051684
sI2582
F0.8859203793086978
sI2583
F0.6169827283081615
sI2585
F0.7655300367053248
sI2588
F1.0
sI2589
F0.16193098822792287
sI2590
F0.7029704417559293
sI2592
F0.5361348454271694
sI2594
F0.7128896337158755
sI2597
F0.10679584038076603
sI2598
F0.7725005816694577
sI2599
F0.2776928824665756
sI2603
F0.23623755537390728
sI2607
F0.5658319191592953
sI2609
F0.9002681132673223
sI2610
F0.4984617903416502
sI2611
F0.2577552687746746
sI2613
F0.22939966862663874
sI2615
F0.24505584139001027
sI2617
F0.9043784958655259
sI2621
F0.19708123997201216
sI2625
F0.4698103448291727
sI2627
F0.5657623132595814
sI2636
F0.6039330696514563
sI2637
F0.01928841673924746
sI2639
F3.5738959822392e-34
sI2642
F6.167224698453016e-47
sI2643
F0.12154367537990293
sI2644
F0.24007489050071917
sI2646
F0.4594188384703717
sI2647
F0.6413975183019965
sI2649
F0.28617598959897295
sI2651
F0.8426975661352936
sI2653
F0.9258661517354073
sI2655
F0.7155306999707371
sI2657
F0.9811003566025439
sI2660
F1.8444339554405812e-36
sI2661
F0.552694019685299
sI2662
F0.9441911868848254
sI2665
F0.20329115494345765
sI2667
F0.6376662770096608
sI2668
F0.008171976962425585
sI2673
F0.7738898699191548
sI2674
F0.4064149092178436
sI2676
F0.785799176381873
sI2678
F0.9321140710812175
sI2680
F0.7775265368267631
sI2682
F0.4143107516479812
sI2684
F0.6331697257319825
sI2687
F0.541034013276934
sI2688
F0.9357737325233149
sI2689
F0.17444803207405785
sI2692
F0.7957363121010961
sI2694
F0.8054205052012258
sI2695
F0.75543932514769
sI2700
F0.5325425186599817
sI2702
F0.6831774902244445
sI2705
F0.7196643044401789
sI2706
F0.5400189958156362
sI2707
F0.505519383496703
sI2711
F0.382490603476236
sI2715
F0.7342522111314254
sI2717
F0.8105799738182915
sI2718
F0.5351128224692383
sI2719
F0.05133127196649309
sI2721
F0.2619763423137655
sI2723
F0.804974267412908
sI2725
F0.8034439877241439
sI2728
F0.5379622743101373
sI2730
F0.8461629248822566
sI2731
F0.8901538912662146
sI2736
F0.7967866655100821
sI2737
F0.730227383078448
sI2739
F0.4836598684467499
sI2741
F0.3472215683759359
sI2743
F0.7264179857543385
sI2749
F0.2832414004613876
sI2754
F0.6873518400695318
sI2756
F0.5734558731256536
sI2759
F1.0
sI2760
F0.8522139643915922
sI2761
F0.6054617070381918
sI2765
F0.48222066412590403
sI2769
F0.8940322101092164
sI2771
F0.9150296181893876
sI2772
F0.9028016950900941
sI2773
F0.5508526710528925
sI2775
F1.0
sI2779
F0.617391807447268
sI2783
F0.8839831489228863
sI2787
F0.1808760309966736
sI2789
F0.10428587066454198
sI2798
F0.21548374158526143
sI2799
F0.5706285686422298
sI2801
F0.7091714757148444
sI2804
F1.0
sI2805
F0.285657972188718
sI2806
F0.6608978563056155
sI2808
F0.8494378107433611
sI2809
F0.8558847130511109
sI2811
F1.0
sI2815
F1.0
sI2817
F0.9437549080264608
sI2819
F0.9999273631829982
sI2822
F1.0
sI2823
F1.0
sI2824
F1.0
sI2827
F0.9999998957931364
sI2830
F1.0
sI2836
F0.26641597861100824
sI2838
F0.31252048741555494
sI2839
F0.29371100017767826
sI2844
F0.31185199730694646
sI2845
F0.4317430774248149
sI2847
F0.34653458665421677
sI2849
F0.04525231178311663
sI2851
F0.4155341213910436
sI2857
F1.664238863102759e-31
sI2862
F0.5356054326874811
sI2863
F0.6559765129350272
sI2865
F0.20080785354703
sI2867
F0.47727069756197255
sI2869
F0.3558560749935298
sI2871
F0.2567846955003115
sI2873
F0.2653449385518255
sI2876
F0.0003170672788406252
sI2877
F0.9147192116189198
sI2878
F0.26537285548942785
sI2881
F0.604752569611275
sI2883
F0.02686422476768162
sI2884
F1.5233298314378013e-43
sI2893
F6.835158514946968e-66
sI2899
F3.1521604957115886e-78
sI2901
F1.0936253623915149e-66
sI2918
F0.9434804252824966
sI2922
F0.4844168513202046
sI2924
F0.7743324036920071
sI2933
F0.9203230731697558
sI2934
F0.7932838866981965
sI2936
F0.9807144387500218
sI2939
F0.9415357770907621
sI2940
F0.507121432667337
sI2941
F0.7403076280278897
sI2951
F0.5692155755303256
sI2963
F0.2964104468755519
sI2967
F0.14077012839889377
sI2969
F9.713344461128715e-57
sI2970
F0.8001493163864141
sI2972
F0.9369450059867326
sI2975
F0.9076942165146815
sI2976
F0.9491429780833524
sI2977
F0.7107375318950194
sI2981
F0.6974776195728193
sI2985
F0.7437291656736642
sI2987
F1.0
sI2988
F0.857720144838005
sI2989
F0.2404838981782605
sI2991
F0.3064136315831417
sI2993
F1.0
sI2995
F0.6991378274914379
sI3005
F0.005731222054751895
sI3017
F0.022112045831671596
sI3021
F0.29816052081295885
sI3023
F5.678427533559491e-89
sI3053
F0.9439835461311645
sI3057
F0.8453068907282113
sI3059
F0.9126115470165208
sI3068
F1.0
sI3069
F0.6940178077327104
sI3071
F0.9991980741147977
sI3074
F1.0
sI3075
F0.34276604899908325
sI3076
F0.4030845600110964
sI3078
F0.4876399282852746
sI3080
F0.29587886043233197
sI3083
F0.1449249979465848
sI3084
F0.9780058219619512
sI3085
F0.972346445402584
sI3089
F0.8514911500298942
sI3093
F0.8337879116959338
sI3095
F0.999057511258884
sI3096
F0.555124317812791
sI3097
F0.9902195130016159
sI3099
F0.33925187621492126
sI3101
F0.448454778119767
sI3103
F1.0
sI3107
F0.02840822101042284
sI3111
F0.9340932769639998
sI3113
F0.4131851364491554
sI3122
F0.2578446584556965
sI3123
F0.969020282988122
sI3125
F0.9795747731629305
sI3128
F0.04559247416401603
sI3129
F0.9957718970560174
sI3130
F1.0
sI3132
F0.9509242138403743
sI3133
F0.0486945914760788
sI3135
F0.0346732992584408
sI3137
F0.7442709847972454
sI3139
F0.8959672896880726
sI3141
F0.7076272814884852
sI3143
F0.9740474347592968
sI3146
F4.753074180242846e-42
sI3147
F0.5844450642930596
sI3148
F0.00029559819691084315
sI3151
F0.19711926636274468
sI3153
F0.14580728880587288
sI3154
F0.03903903191664138
sI3167
F0.28491668531161424
sI3179
F0.05584436046792961
sI3183
F0.2728978168657831
sI3185
F3.8853377844514866e-57
sI3215
F0.5570696425838915
sI3219
F0.4725245953934695
sI3221
F0.5225912418352896
sI3230
F1.0
sI3231
F0.6039836800792691
sI3233
F0.48661573036101263
sI3236
F1.0
sI3237
F0.7930016234256427
sI3238
F0.1115044114487311
sI3302
F0.3450013552675849
sI3314
F0.11252984251736034
sI3318
F0.002222905680604571
sI3320
F1.32211193758051e-82
sI3323
F0.39508714297129743
sI3327
F0.28540853195686017
sI3329
F0.6229513989337622
sI3338
F0.0024845245482373636
sI3339
F0.49919131791163807
sI3341
F0.0489517878912778
sI3344
F0.11274670231055478
sI3345
F0.9999893644579305
sI3346
F1.0
sI3356
F7.241996828419256e-43
sI3368
F1.2918837020245432e-44
sI3372
F0.11998779657999842
sI3374
F1.0185179881672509e-60
sI3375
F0.7560220644538607
sI3377
F0.8560088136981501
sI3380
F0.9591145508948056
sI3381
F0.9123479074860215
sI3382
F0.6154223628893438
sI3386
F0.8856009232998435
sI3390
F0.33468025970913357
sI3392
F1.0
sI3393
F0.7732504359653524
sI3394
F0.1752299342887052
sI3396
F0.385085621127496
sI3398
F1.0
sI3400
F1.0
sI3402
F0.5914155174747183
sI3404
F0.8510867986112465
sI3407
F0.2854881366585515
sI3408
F0.6857550779172105
sI3409
F0.9251143153674789
sI3413
F0.6071451328091838
sI3417
F0.9564159218608654
sI3419
F1.0
sI3420
F0.6744205834291983
sI3421
F0.5262219652563631
sI3423
F0.7971784479320206
sI3425
F0.9721684082833061
sI3427
F0.471530838765246
sI3431
F0.2998282345185365
sI3435
F0.703284868689835
sI3437
F0.10757611468365524
sI3446
F1.0
sI3447
F3.1581446115602286e-05
sI3449
F0.6178679297631248
sI3452
F0.29401801375299236
sI3453
F0.28611775517257015
sI3454
F1.0
sI3456
F0.7982196002412003
sI3457
F0.5044769927663775
sI3459
F0.06848542432497277
sI3461
F0.998417119612087
sI3463
F0.9704173408807568
sI3465
F0.8430883937430897
sI3467
F0.8858934095324935
sI3470
F0.1358644017724877
sI3471
F0.972137707009895
sI3472
F0.2785021913891296
sI3475
F0.30145000622439383
sI3477
F0.7411977489315786
sI3478
F2.573737207000212e-33
sI3485
F0.4687205966480173
sI3489
F0.5863862378212558
sI3491
F0.8876118643653799
sI3500
F1.0
sI3501
F0.5798579727064681
sI3503
F0.3025985766874475
sI3506
F1.0
sI3507
F0.9232517055826543
sI3508
F0.25680007910091895
sI3518
F0.0004049121688484775
sI3530
F3.693995316350232e-50
sI3534
F8.469932949838243e-42
sI3536
F6.518515124270407e-62
sI3537
F0.8776220238128067
sI3539
F1.0
sI3542
F1.0
sI3543
F1.0
sI3544
F1.0
sI3548
F1.0
sI3552
F1.0
sI3555
F0.9200906306848211
sI3556
F0.6385730477721324
sI3558
F1.0
sI3562
F1.0
sI3564
F0.8674269184416622
sI3565
F0.06187230310163763
sI3567
F0.09397579386002504
sI3569
F0.3491391040401365
sI3571
F0.9993331297922112
sI3573
F0.6483391775082393
sI3575
F0.8823744873821838
sI3578
F1.3241754319021083e-48
sI3579
F0.9990896463641166
sI3580
F0.05768260688159475
sI3583
F0.9970760997677238
sI3585
F0.43375291919903386
sI3586
F2.591462438450573e-47
sI3591
F0.8486104628406783
sI3593
F0.9896126178163696
sI3596
F0.11197519105814882
sI3597
F1.0
sI3598
F1.0
sI3602
F0.03957209844339418
sI3606
F1.0
sI3608
F1.0
sI3609
F0.9867366166521601
sI3610
F1.0
sI3612
F0.2475595174960139
sI3614
F1.0
sI3619
F1.9701003098197426e-77
sI3621
F6.2165404551223794e-58
sI3627
F7.167183174969036e-70
sI3632
F9.263367138985358e-53
sI3634
F8.872543021186704e-88
sI3640
F6.835158514946968e-66
sI3645
F0.5485721974741712
sI3646
F0.5800747877673885
sI3648
F0.5562987934219923
sI3650
F0.709242530029834
sI3652
F0.5868702246233499
sI3654
F0.42123587129349954
sI3656
F0.477442582395496
sI3659
F0.00380088616230521
sI3660
F0.808731869243598
sI3661
F0.2194671758394272
sI3664
F0.6592898826230247
sI3666
F0.21585305814931452
sI3667
F0.23750235800692904
sI3672
F0.6118093426661395
sI3674
F0.7853060032220942
sI3677
F0.6776716706981277
sI3678
F0.5161982178441051
sI3679
F0.10069199938752496
sI3683
F0.7256773983955086
sI3687
F0.4821910134209775
sI3689
F0.4029138123961239
sI3690
F0.6822487184894899
sI3691
F0.22811415711658492
sI3693
F0.05481880167882079
sI3695
F0.34829881588462985
sI3697
F0.6599116719549842
sI3700
F0.6912409775593489
sI3702
F0.6168169304094252
sI3703
F0.6499181464908986
sI3708
F0.6087522029135481
sI3709
F0.6237313246924924
sI3711
F0.6432760332014377
sI3713
F1.5914343565113296e-59
sI3715
F0.5696951026009396
sI3721
F0.8022610532815212
sI3726
F0.4261684572883043
sI3728
F0.27402087556819643
sI3731
F1.0
sI3732
F0.5474883377947747
sI3733
F0.8975386290874544
sI3737
F0.1802778371138261
sI3741
F0.49011132081044995
sI3743
F0.6746393112300881
sI3744
F0.83917637114065
sI3745
F0.955449701974332
sI3747
F1.0
sI3751
F1.0
sI3755
F0.8061307631812034
sI3759
F0.8484931279899295
sI3761
F0.9583387494821771
sI3770
F0.7324756717653923
sI3771
F0.8874655078732847
sI3773
F0.9996121454403993
sI3776
F1.0
sI3777
F0.5752799586781762
sI3778
F1.0
sI3780
F0.9160086992107322
sI3781
F0.9128695698587362
sI3783
F1.0
sI3787
F0.685565769857907
sI3789
F0.6098659902727164
sI3791
F2.2181357552966757e-87
sI3795
F0.480525734220278
sI3796
F0.7268082779249397
sI3799
F1.0
sI3802
F1.0
sI3808
F0.6366391157699955
sI3810
F0.53299027628006
sI3811
F0.529389153612243
sI3816
F0.3418414599031214
sI3817
F0.4592507595883466
sI3819
F0.5372683867708081
sI3821
F0.0021672267191977864
sI3823
F0.31041447648337483
sI3829
F1.878834066219083e-73
sI3834
F0.3535241891483629
sI3835
F0.1701291382859368
sI3837
F0.0008773463195546646
sI3839
F0.002079816046906217
sI3841
F0.022909153529542904
sI3843
F0.5234103088331247
sI3845
F0.5873687618486997
sI3848
F0.0003179348538938007
sI3849
F0.49601632102748217
sI3850
F0.045212793247078636
sI3853
F4.586997231980183e-71
sI3855
F4.1718496795330606e-63
sI3865
F0.1245647501938224
sI3871
F0.8924619593493098
sI3873
F0.9820896020145377
sI3874
F1.0
sI3888
F0.43404857116780843
sI3890
F0.2728864358534414
sI3893
F0.00780266834769972
sI3894
F0.5882705083598143
sI3895
F0.5438926994055922
sI3899
F0.03920107243561121
sI3903
F0.8109005532185242
sI3905
F0.9236104099868937
sI3906
F0.46027868751154705
sI3907
F0.26558261301164776
sI3909
F0.28486835282471396
sI3911
F0.9930074086883374
sI3913
F0.9449483298805923
sI3917
F0.44892278398087837
sI3921
F0.6636851107714379
sI3923
F0.5217513450698416
sI3932
F1.0
sI3933
F0.03548079276383638
sI3935
F0.24285378035930133
sI3938
F0.8812650613434678
sI3939
F0.10054356567035808
sI3940
F0.6004043043730916
sI3942
F0.21875645318892611
sI3943
F0.5969167411121471
sI3945
F0.10172968948568306
sI3947
F3.29100911464243e-43
sI3949
F0.3337178365289816
sI3951
F0.27939429655237447
sI3953
F4.074071952669004e-61
sI3957
F0.34196104350561923
sI3958
F0.07016511912885462
sI3961
F0.8059922182415742
sI3963
F0.22381241293383547
sI3964
F0.28493947464789166
sI3971
F0.24651003148644063
sI3975
F0.5359350003849652
sI3977
F0.3881521783076866
sI3986
F0.6567687911068276
sI3987
F0.8354298266016582
sI3989
F0.7191382213356418
sI3992
F1.0
sI3993
F0.7757604576574229
sI3994
F1.0
sI4004
F1.0
sI4016
F1.0
sI4020
F1.0
sI4023
F0.6329206380418255
sI4025
F2.1153791001288166e-83
sI4029
F0.43757218481769444
sI4030
F0.6244935504440198
sI4038
F0.026410235386011706
sI4040
F2.166148198531909e-85
sI4041
F0.9401530358934991
sI4042
F1.0
sI4044
F1.0
sI4048
F1.0
sI4050
F0.47481462312674005
sI4051
F0.016838614554778825
sI4053
F0.011347621838898186
sI4055
F2.9541476136213137e-36
sI4057
F0.3697015032211957
sI4059
F0.5160326293964599
sI4061
F0.5792581054292181
sI4064
F1.7546445071623395e-47
sI4065
F0.9222236434058362
sI4066
F0.4090412679455531
sI4069
F3.9785858912783238e-59
sI4071
F6.2165404551223794e-58
sI4077
F0.07149151693795434
sI4079
F0.32836449312502314
sI4082
F1.801275229269996e-45
sI4083
F0.21551992812758922
sI4084
F0.004437455458862266
sI4088
F0.3768578609279638
sI4092
F0.3977212832529642
sI4094
F1.0
sI4095
F5.92855496895063e-54
sI4100
F2.4283361152821786e-56
sI4102
F4.809815209520854e-75
sI4105
F0.34147775491854737
sI4107
F0.005877383895231349
sI4108
F0.1046182549883651
sI4113
F0.871922729730723
sI4114
F1.0
sI4116
F0.3899827311377265
sI4118
F6.070840288205446e-56
sI4120
F1.0
sI4126
F4.6970851655477075e-73
sI4132
F0.6084652048651537
sI4134
F0.9646543682281314
sI4135
F0.9025231797083639
sI4140
F0.46630527339948424
sI4141
F0.43054763588535916
sI4143
F0.8132154419688146
sI4145
F0.7209327053140057
sI4147
F0.2571638452227193
sI4153
F0.9978931230541692
sI4158
F0.6377253862640465
sI4159
F0.32565258956315013
sI4161
F0.6426427522288405
sI4163
F0.9860488066817485
sI4165
F0.7252439909125017
sI4167
F0.12555821676201162
sI4169
F0.20853429437796803
sI4172
F0.0500049287242411
sI4173
F0.03500656601091997
sI4174
F0.0068666870766490975
sI4177
F0.09347181633877097
sI4179
F0.8491667231151011
sI4180
F8.858769678467355e-38
sI4189
F0.6106017540530875
sI4195
F0.5568736657309762
sI4197
F0.7201985771044692
sI4198
F1.0
sI4212
F0.9569681362452291
sI4213
F0.6621883479291836
sI4215
F1.0
sI4219
F0.8752108106237246
sI4221
F0.7649595342495152
sI4223
F0.17699300111640381
sI4226
F1.0
sI4227
F0.2046841762863556
sI4228
F0.16910582697030704
sI4231
F0.5457229267616137
sI4234
F1.0
sI4239
F0.8371157484751647
sI4241
F0.7106149703512504
sI4244
F1.0
sI4245
F0.6540750626586826
sI4246
F0.9650449998146979
sI4250
F0.6700422077439476
sI4254
F0.020297709353637665
sI4256
F0.051064575047028035
sI4257
F0.9051921218303611
sI4258
F0.2435042635757691
sI4260
F1.0
sI4264
F1.0
sI4267
F1.0
sI4270
F1.0
sI4275
F0.9613493297296972
sI4276
F1.0
sI4278
F1.0
sI4282
F1.0
sI4297
F0.3570100978820334
sI4303
F0.8218274101969731
sI4305
F0.5335968817644942
sI4306
F1.0
sI4321
F0.26872603369861886
sI4323
F0.04819532828423435
sI4324
F0.6455544617491575
sI4329
F0.17017619236063805
sI4330
F0.6589503486670861
sI4332
F0.4483135931947106
sI4334
F0.12045434195919037
sI4336
F0.0040255326218995675
sI4342
F1.668739871813224e-63
sI4375
F0.7523115817004953
sI4377
F0.5890488967270995
sI4378
F0.7131631027504709
sI4383
F0.7945803062801486
sI4384
F0.6437037942658632
sI4386
F0.7355318056309413
sI4388
F0.7982471739018588
sI4390
F0.571308325532927
sI4396
F0.5551593150146166
sI4401
F0.6887311681135637
sI4402
F0.9139293397619274
sI4404
F0.5056957811991862
sI4406
F0.3979848149012072
sI4408
F0.5460277692735801
sI4410
F0.8039853518983132
sI4412
F0.6968456544089616
sI4415
F0.46616502241656416
sI4416
F0.7072711917690477
sI4417
F0.6215862835311008
sI4420
F0.990579864393831
sI4422
F0.5894485426257874
sI4423
F0.4835369515338152
sI4432
F0.6889761700487326
sI4438
F0.8563597622527259
sI4440
F0.8530984760893543
sI4441
F1.0
sI4455
F0.7678782784706486
sI4456
F0.7695377826997964
sI4458
F0.5393484909541985
sI4460
F0.536505610888879
sI4462
F0.999984342741266
sI4464
F0.8661099175879184
sI4466
F0.9718060381269232
sI4469
F0.2179985408189999
sI4470
F0.5620167110169407
sI4471
F0.47322837422449565
sI4474
F0.9594099351689167
sI4476
F0.6175604538079835
sI4477
F0.02725950554224261
sI4482
F0.8593638404729665
sI4484
F0.8172265311632708
sI4487
F0.7431062558317333
sI4488
F0.9743128356571461
sI4489
F0.9830636252607886
sI4493
F0.9071953446325891
sI4497
F0.9383352231643163
sI4499
F1.0
sI4500
F0.9644302115475792
sI4501
F0.9883300844671861
sI4503
F0.6653927226149848
sI4505
F0.8868768632392555
sI4507
F1.0
sI4510
F0.9536631590598352
sI4512
F0.7734386410158784
sI4513
F0.7798931629642483
sI4518
F0.9886346030739483
sI4519
F0.9639432895681814
sI4521
F0.17390255686909925
sI4523
F0.7224233477902156
sI4525
F1.0
sI4531
F0.8649689382420284
sI4540
F0.9456507166715193
sI4546
F0.8543562857832653
sI4548
F0.9572859453953286
sI4549
F1.0
sI4564
F0.2571264878182252
sI4566
F0.7421951156955389
sI4567
F0.9021440429269785
sI4572
F0.5770200462506423
sI4573
F0.11923870980761417
sI4575
F0.8885893217558886
sI4577
F0.17974647075463876
sI4579
F1.9701003098197426e-77
sI4585
F0.9372894741257087
sI4617
F0.8279303511794571
sI4618
F0.768042638375078
sI4620
F0.6682980085002116
sI4622
F0.5220114548029247
sI4624
F0.8139799493125052
sI4626
F0.5936993965360111
sI4628
F0.8364085828982329
sI4631
F0.531877471203315
sI4632
F0.724324201798583
sI4633
F0.34108731926666724
sI4636
F0.856979241011195
sI4638
F0.46024953909625316
sI4639
F0.36037378989217583
sI4644
F0.23617389453971485
sI4646
F0.6320860524357863
sI4649
F0.5176150433611886
sI4650
F0.15720762839138416
sI4651
F0.17476756666028043
sI4655
F0.3579530920817282
sI4659
F0.05996660082774023
sI4661
F0.9221475841180891
sI4662
F0.946426092536395
sI4663
F0.7336041633088185
sI4665
F0.36424365430320477
sI4667
F0.9437189066096857
sI4669
F0.7765628667381566
sI4672
F0.7182015714952907
sI4674
F0.5545337876987121
sI4675
F0.42768416781697105
sI4680
F0.9097861845685934
sI4681
F0.9566124941120058
sI4683
F0.9205614714654762
sI4685
F0.9568280286966012
sI4687
F0.9629523611566808
sI4693
F0.706393633609474
sI4698
F0.8721920357990118
sI4700
F0.9804934462197685
sI4703
F0.7142431893802198
sI4704
F0.9882697245591103
sI4705
F0.9999805797789957
sI4709
F0.8460336583815159
sI4713
F0.6761918833151982
sI4715
F1.0
sI4716
F0.8837440467080112
sI4717
F0.8884700879596956
sI4719
F0.46966199707708567
sI4721
F0.9990435359594984
sI4723
F1.0
sI4727
F1.0
sI4731
F1.0
sI4742
F1.0
sI4743
F1.0
sI4748
F1.0
sI4750
F1.0
sI4752
F0.5928045615709845
sI4753
F0.48803680508819
sI4755
F0.2553773433604936
sI4757
F0.4741545821108393
sI4759
F1.0
sI4761
F0.5774111020988701
sI4763
F0.9999990445380159
sI4766
F0.0016366341801458129
sI4767
F1.0
sI4768
F1.0
sI4771
F0.8295427782644526
sI4773
F0.3587459767362054
sI4774
F0.7187502360198685
sI4780
F0.37449573293215555
sI4782
F0.6916460447060904
sI4783
F0.542052565779724
sI4788
F0.9604066287881349
sI4789
F0.24493627689578124
sI4791
F0.9957817441238636
sI4793
F0.41870535611672033
sI4795
F2.0173827172554165e-79
sI4801
F0.49082795098402443
sI4806
F0.31755070044272127
sI4807
F0.22905030176461416
sI4809
F0.29613967374936934
sI4811
F0.4025470329971025
sI4813
F1.447401115466462e-51
sI4815
F0.31287160854641005
sI4817
F0.3954167985669338
sI4820
F0.04725277141007417
sI4821
F6.070840288205446e-56
sI4825
F0.752401269792625
sI4827
F0.20438181595987376
sI4828
F0.29514268450846814
sI4837
F0.48558984171389435
sI4843
F0.9888971834438188
sI4845
F1.0
sI4846
F1.0
sI4864
F0.9424030629384603
sI4870
F0.930030511798213
sI4872
F0.8344604518115538
sI4873
F1.0
sI4888
F0.9652363240910676
sI4890
F0.7889157194922023
sI4891
F0.7609154327201484
sI4896
F0.9232407505848503
sI4897
F0.9306517226245026
sI4899
F0.9218693332516928
sI4901
F0.559913865090999
sI4903
F0.8936361343501797
sI4909
F0.9999453569411222
sI4942
F0.9433347592974778
sI4944
F0.7531372853506975
sI4945
F0.31425108115646233
sI4950
F0.73112720385714
sI4951
F0.9746813921564328
sI4953
F0.8406551150794932
sI4955
F0.7820073205096685
sI4957
F1.0
sI4963
F0.8996224874940307
sI4968
F0.8070535061567466
sI4969
F0.5973459539112643
sI4971
F0.15828102965522822
sI4973
F0.4518835645166932
sI4975
F1.0
sI4977
F0.7369004611242795
sI4979
F0.9787277424879368
sI4982
F0.22966938095895525
sI4983
F1.0
sI4984
F1.0
sI4987
F0.9998384269267695
sI4989
F0.012703603129286811
sI4990
F0.008823789936026314
sI4999
F1.0
sI5005
F1.0
sI5007
F1.0
sI5008
F1.0
sI5053
F1.0
sI5059
F0.8497109377629009
sI5061
F0.95032111217951
sI5062
F1.0
sI5103
F0.6958353436134332
sI5104
F0.7244437529659754
sI5106
F0.4637897160986796
sI5108
F0.7235829440220839
sI5110
F0.9634968267139489
sI5112
F0.5619904401837572
sI5114
F0.7968062708693961
sI5117
F0.8480189523130301
sI5118
F0.10491464403475032
sI5119
F0.10541642687653308
sI5122
F0.7708826481141
sI5124
F0.6733977717169003
sI5125
F0.6626826747387691
sI5130
F0.6891062694293191
sI5132
F0.2903213267109217
sI5135
F0.3000869923784308
sI5136
F0.9122201674006136
sI5137
F1.0
sI5141
F0.16790498843138255
sI5145
F0.4955368473416677
sI5147
F0.7899472354138086
sI5148
F0.6338591842301817
sI5149
F1.0
sI5151
F0.44152944416097106
sI5153
F0.07214966948305475
sI5158
F0.6973866131855746
sI5160
F0.780166968904152
sI5161
F0.8322197624832808
sI5166
F0.8855993175923627
sI5167
F0.7408142639853462
sI5169
F0.8358047482814674
sI5171
F1.0
sI5173
F0.7431375674474342
sI5179
F0.4191395250545123
sI5184
F0.5423343925893691
sI5186
F0.7075018815014833
sI5189
F0.5244725213756346
sI5190
F0.9988876105532654
sI5191
F1.0
sI5195
F1.0
sI5199
F1.0
sI5202
F0.30376099091318604
sI5203
F0.8649393709750438
sI5205
F0.2747312393956077
sI5207
F0.2259308202489846
sI5209
F1.0
sI5213
F0.8647446388385693
sI5217
F0.9994200701496281
sI5219
F0.9313656341912941
sI5228
F1.0
sI5229
F0.8813252391567183
sI5231
F0.9774867197790749
sI5234
F0.9763805204990692
sI5235
F0.9992576525754959
sI5236
F1.0
sI5238
F0.8210848207370891
sI5239
F0.9654051763814332
sI5241
F0.8858078617651939
sI5243
F0.3400067607930579
sI5245
F1.0
sI5247
F1.0
sI5252
F1.0
sI5254
F1.0
sI5257
F0.9608163879586973
sI5259
F0.8618866436525279
sI5260
F0.9533905059761254
sI5266
F0.663589851470739
sI5268
F0.5819412775970886
sI5269
F0.35191986571395445
sI5274
F0.5101534752865788
sI5275
F0.23617077706446526
sI5277
F0.4687511128251903
sI5279
F0.38226834799949305
sI5281
F1.2608641982846354e-78
sI5287
F0.47869319552602096
sI5292
F0.6877534585979643
sI5293
F1.0
sI5295
F0.25060695939113425
sI5297
F0.016420307750935025
sI5301
F0.03902620868706874
sI5303
F0.014086545689447453
sI5306
F0.003109585438453857
sI5307
F1.2313126936373389e-76
sI5313
F0.8993326965996462
sI5314
F1.0
sI5323
F0.0415644485039389
sI5329
F0.6981404668296167
sI5331
F0.6382590072178072
sI5332
F1.0
sI5346
F0.7437197125979247
sI5348
F0.7206807808435749
sI5351
F0.711869240530581
sI5352
F0.8749227912624216
sI5353
F0.5897274146271527
sI5357
F0.8808817470488829
sI5361
F0.017554244441023475
sI5363
F0.9275573881409601
sI5364
F0.7732346671038723
sI5365
F0.5168371988275868
sI5367
F0.17773743739837683
sI5369
F0.6967851047499432
sI5371
F0.9996027187058479
sI5375
F0.31395957448665746
sI5379
F0.30288701076855623
sI5381
F0.10695773228909386
sI5390
F0.3399959833127315
sI5391
F0.8624743457750023
sI5393
F0.9245886267416749
sI5396
F0.9385692836508482
sI5397
F0.9938459161112296
sI5398
F1.0
sI5400
F0.6092239166842811
sI5401
F0.5104235929814107
sI5403
F0.8539622212909052
sI5405
F0.9321399878494984
sI5407
F0.9223644932457378
sI5409
F0.9246289010988143
sI5411
F1.0
sI5414
F1.0
sI5415
F0.9581188109543843
sI5416
F0.0386610883255937
sI5419
F0.5745648313393286
sI5421
F0.023457124590537306
sI5422
F0.06952022455298099
sI5429
F0.9890205282363602
sI5433
F0.9887879279198697
sI5435
F0.9977487783386421
sI5444
F1.0
sI5445
F0.5758682940992815
sI5447
F0.8319572139549583
sI5450
F0.18198471608489536
sI5451
F0.988968858718029
sI5452
F1.0
sI5462
F1.0
sI5474
F1.0
sI5478
F1.0
sI5481
F0.7170748702570805
sI5483
F0.619400006165563
sI5486
F0.38357532619537793
sI5487
F1.0
sI5488
F1.0
sI5492
F1.0
sI5496
F1.0
sI5499
F0.6794123249575021
sI5500
F0.958869493194832
sI5502
F0.03749786044720839
sI5504
F0.06779316950435679
sI5506
F1.0
sI5508
F0.7375255339785494
sI5509
F0.6801456445278772
sI5511
F0.32840680982322756
sI5513
F0.639895122666214
sI5515
F3.1521604957115886e-78
sI5517
F0.9490009635590634
sI5519
F0.48469239265465724
sI5522
F0.15630124383732538
sI5523
F4.6970851655477075e-73
sI5527
F0.6955905765596114
sI5529
F0.0916411516367731
sI5530
F0.13876345810439913
sI5535
F0.04229761359480948
sI5537
F0.007037833624258407
sI5540
F0.023335990177180046
sI5541
F6.518515124270407e-62
sI5546
F4.3057170906496064e-45
sI5552
F6.674959487252897e-64
sI5553
F0.7203369418830987
sI5554
F1.0
sI5556
F0.06356528309251024
sI5558
F0.021465528845350284
sI5563
F0.4522421904293483
sI5565
F0.7591555601177886
sI5566
F0.36130498398325706
sI5571
F0.9867911553657308
sI5572
F0.14169441256449394
sI5574
F1.0
sI5576
F1.0
sI5578
F3.902185687895036e-96
sI5584
F0.02366979137010706
sI5590
F0.6470858976403469
sI5592
F0.7674449923759804
sI5593
F0.9578063635311057
sI5598
F0.9614117788859425
sI5599
F0.4810961142039893
sI5601
F0.9131222963339427
sI5603
F0.9415426343956272
sI5605
F0.9712378122212889
sI5611
F0.9898836644712061
sI5616
F0.7694619951519789
sI5617
F1.0
sI5619
F0.9134675289075552
sI5621
F0.169098784391976
sI5625
F0.9832857811920556
sI5627
F0.9987830904040705
sI5630
F0.7060419103660045
sI5631
F0.9889162396930309
sI5632
F1.0
sI5637
F0.28191208892158925
sI5638
F1.0
sI5647
F0.9988552657239049
sI5653
F0.7132575986332919
sI5655
F0.986107420173589
sI5656
F1.0
sI5670
F0.9658542133771695
sI5671
F0.9845415825962293
sI5673
F0.7038198049173553
sI5675
F0.5000909883133767
sI5677
F1.0
sI5679
F1.0
sI5684
F1.0
sI5686
F1.0
sI5689
F0.9967869901306375
sI5691
F0.3581880936528982
sI5692
F0.7368851440271889
sI5697
F0.9526391877275299
sI5699
F0.8945229674477156
sI5702
F0.6087166144884549
sI5703
F1.0
sI5704
F1.0
sI5708
F1.0
sI5712
F1.0
sI5715
F0.9851267616794218
sI5716
F1.0
sI5718
F0.0010769168159692987
sI5720
F0.09684965990272568
sI5725
F1.0
sI5727
F1.0
sI5728
F1.0
sI5734
F1.0
sI5736
F1.0
sI5746
F1.0
sI5755
F0.7586339242349884
sI5761
F0.9990149787786914
sI5763
F0.8639327793243775
sI5764
F1.0
sI5781
F0.8337337810335834
sI5782
F1.0
sI5787
F0.9626589361922211
sI5788
F1.0
sI5790
F0.9907104919516194
sI5792
F0.1974329735798348
sI5836
F0.3987949213894355
sI5842
F0.5903263965401704
sI5844
F0.6500428288214606
sI5845
F1.0
sI5860
F0.47548897850117444
sI5862
F0.2943174205186059
sI5863
F0.04052053311593751
sI5868
F0.6023545228366944
sI5869
F0.6671932873436448
sI5871
F0.7053963148837368
sI5873
F0.040732786325574775
sI5875
F0.5757766349513751
sI5881
F0.0915171732145734
sI5914
F0.6271480133994022
sI5916
F0.7354552177634369
sI5917
F0.8050571323799577
sI5922
F0.7616690752117667
sI5923
F0.312857478630809
sI5925
F0.6000720778549327
sI5927
F0.0009141213457018987
sI5929
F0.45384788392085074
sI5935
F0.9271946889600575
sI5940
F0.9705404290822719
sI5941
F0.3351760046388659
sI5943
F0.6250887571332315
sI5945
F0.7341846449616248
sI5947
F0.8976371158446801
sI5949
F0.6441387102568981
sI5951
F0.8568378533111195
sI5954
F0.0025279727743874993
sI5955
F0.7786464672818931
sI5956
F0.8558513864217647
sI5959
F0.9862092086787363
sI5961
F0.7589098635615303
sI5962
F0.04206283594573289
sI5971
F0.7713721704924008
sI5977
F0.9673873331153308
sI5979
F0.8499762766563358
sI5980
F1.0
sI6025
F0.4355425151923049
sI6031
F0.705679436805314
sI6033
F0.9758967945539988
sI6034
F1.0
sI6076
F0.6099230889246445
sI6078
F0.34724178710403186
sI6079
F0.3552502913141547
sI6084
F0.4790801487663984
sI6085
F0.31112372121629106
sI6087
F0.47013199392626825
sI6089
F0.3536298142244293
sI6091
F0.39384565357592816
sI6097
F0.047684584488186826
sI6102
F0.8651692723449605
sI6103
F0.5807611771185313
sI6105
F0.19872777971403277
sI6107
F0.6275252286077333
sI6109
F0.8559969365495415
sI6111
F0.33513618556637015
sI6113
F0.22151944209190344
sI6116
F0.09606694505050928
sI6117
F0.996533285208985
sI6118
F2.0490478311699804e-34
sI6121
F0.3968874937450847
sI6123
F0.13302449213118833
sI6124
F3.578914874746639e-33
sI6133
F0.9171863773270792
sI6139
F0.8528012592054852
sI6141
F0.9611177978095788
sI6142
F1.0
sI6156
F0.8759194653235237
sI6157
F0.7939754001969969
sI6159
F0.21015243271441925
sI6161
F0.7171090374419955
sI6163
F0.7130034840451409
sI6165
F0.08096258488145332
sI6167
F0.37809192891417165
sI6170
F1.779471461798462e-47
sI6171
F0.2657155245518365
sI6172
F0.0006239084602131322
sI6175
F0.9999338197718397
sI6177
F0.8450539563428877
sI6178
F0.8938484603198399
sI6183
F1.0
sI6188
F1.0
sI6190
F1.0
sI6194
F1.0
sI6198
F1.0
sI6202
F1.0
sI6204
F1.0
sI6211
F0.9550462940594839
sI6213
F0.018904802558917022
sI6214
F0.6226552946856011
sI6219
F0.36034787707205285
sI6220
F0.3460715929093323
sI6222
F9.641591665259408e-48
sI6224
F2.734063405978787e-66
sI6226
F1.0
sI6232
F1.0
sI6241
F0.5695875213203689
sI6247
F0.3999974863615746
sI6249
F0.9928971478043104
sI6250
F1.0
sI6265
F8.983960031954718e-46
sI6267
F0.2972451724644624
sI6268
F3.890814828651172e-49
sI6273
F0.9850457583304826
sI6274
F2.4001431256783976e-49
sI6276
F0.38070169124378694
sI6278
F1.0
sI6280
F4.271974071841854e-65
sI6286
F1.0185179881672509e-60
sI6349
F0.9939032456931827
sI6355
F0.9078246994138726
sI6357
F0.9501857502382736
sI6358
F1.0
sI6403
F0.9971731957094152
sI6409
F0.9884571314178382
sI6411
F0.6565329686103103
sI6412
F1.0
sI6427
F0.8007584982380607
sI6429
F0.5425524885537982
sI6430
F0.8404564532144764
sI6435
F0.44026810699542523
sI6436
F0.03984094468271829
sI6438
F0.0015494156988959916
sI6440
F0.12922846908759672
sI6442
F1.0
sI6448
F1.0
sI6561
F0.6776459464750176
sI6563
F0.6070094973277447
sI6566
F0.5721847929494216
sI6567
F0.7777238356584054
sI6568
F0.512236860298605
sI6572
F0.6802447845158249
sI6576
F0.7733439567077712
sI6578
F0.9587666840844988
sI6579
F0.5449365005052739
sI6580
F0.6051764404260711
sI6582
F0.49864662712385754
sI6584
F0.7062192939883829
sI6586
F0.5455673410101127
sI6590
F0.5386784908532861
sI6594
F0.37105342626568505
sI6596
F0.6519556387742831
sI6605
F0.5783511526549481
sI6606
F0.6587645241871631
sI6608
F0.1905414411646455
sI6611
F0.4824898960222602
sI6612
F0.2501222828859244
sI6613
F0.5610588788970081
sI6615
F0.7080795130303532
sI6616
F0.6595635525835402
sI6618
F0.56343342386297
sI6620
F0.6207137452870991
sI6622
F0.7084399437058578
sI6624
F0.40458693143383534
sI6626
F0.770550144364484
sI6629
F0.13824605097909087
sI6630
F0.9765783896367841
sI6631
F0.5997400044040776
sI6634
F0.616662578126649
sI6636
F0.7066985822346655
sI6637
F0.033205783309251544
sI6644
F0.6191729673088667
sI6648
F0.595645983371323
sI6650
F0.7238147018662553
sI6659
F0.7856048985618628
sI6660
F0.8209606957148898
sI6662
F0.5186493198537945
sI6665
F0.836293397994331
sI6666
F0.6860470413346738
sI6667
F1.0
sI6677
F0.4312417620745457
sI6689
F0.6701589103266802
sI6693
F0.17597087598680772
sI6695
F9.526820527087488e-94
sI6696
F0.8329950968542066
sI6698
F0.866431415681125
sI6701
F0.5977011176286293
sI6702
F0.8757790851578013
sI6703
F1.0
sI6707
F0.7879154254500145
sI6711
F0.5712904224706208
sI6713
F0.8538723493681574
sI6714
F0.8507694426313728
sI6715
F1.0
sI6717
F0.9676105079911514
sI6719
F0.5200998191900197
sI6723
F0.684379599414903
sI6724
F0.328883404834757
sI6726
F0.5703502983418253
sI6728
F0.6235605103007978
sI6730
F0.279214056483882
sI6732
F0.7779981093316457
sI6734
F0.8285605033816171
sI6737
F0.23914556973664203
sI6738
F0.6398504915249481
sI6739
F0.20776566255740453
sI6742
F0.6094818887382744
sI6744
F0.5920456413027908
sI6745
F0.1128554502267198
sI6750
F0.17470894901556638
sI6752
F0.8292851748794312
sI6755
F0.3279772164930111
sI6756
F0.31145654068597617
sI6757
F0.10099853445030729
sI6761
F0.8920827020134953
sI6765
F0.44019248236871333
sI6767
F0.9189122851944003
sI6768
F0.11806803547970034
sI6769
F0.11357110519351243
sI6771
F0.09343311196078671
sI6773
F0.4737183294841806
sI6775
F0.032364486017585924
sI6778
F0.027801951206955142
sI6780
F0.5405403923175285
sI6781
F0.20031542820189496
sI6786
F0.7651393538440443
sI6787
F0.09409104682330244
sI6789
F0.25185740716349403
sI6791
F0.6887222527005658
sI6793
F0.7659469826180549
sI6799
F0.021405905036914773
sI6806
F0.4709684712751402
sI6810
F0.4773288301136952
sI6812
F0.3677242451583584
sI6821
F1.0
sI6822
F0.4792439633794333
sI6824
F0.4188583628234418
sI6827
F0.1777632804342517
sI6828
F0.6464732839877889
sI6829
F0.5281238886067477
sI6839
F0.717696034931617
sI6851
F0.4857638644116324
sI6855
F0.12905321743763767
sI6857
F9.263367138985358e-53
sI6858
F0.5870986854653103
sI6860
F0.7381002915228931
sI6863
F0.668067962142205
sI6864
F0.5512776639221912
sI6865
F0.6463545503305472
sI6869
F1.0
sI6873
F1.0
sI6876
F0.5490458718682094
sI6877
F0.5755339334175764
sI6879
F0.5567876216411938
sI6881
F0.6065146850457817
sI6883
F1.0
sI6893
F0.05029433263464869
sI6905
F0.4067231766462016
sI6909
F0.03621430466137037
sI6911
F5.81470979436492e-91
sI6941
F0.1361905971612603
sI6945
F0.32590872026701223
sI6947
F0.06316379077902136
sI6956
F1.0
sI6957
F0.27406628260119303
sI6959
F0.0013689175581137918
sI6962
F0.00011887463847685755
sI6963
F0.4331185432886733
sI6964
F1.0
sI6966
F0.4510896778363245
sI6968
F0.9485460669882387
sI6971
F0.30088565415916046
sI6972
F0.8538833166239331
sI6973
F0.5544379919369871
sI6977
F1.0
sI6981
F1.0
sI6984
F0.4121763742426613
sI6985
F0.1475416037289542
sI6987
F0.14261033109127785
sI6989
F0.2313008529756617
sI6991
F0.2990441210249103
sI6995
F0.4605172283622292
sI6999
F0.2137778938458687
sI7001
F0.881552643397751
sI7010
F1.0
sI7011
F0.012448953593631
sI7013
F0.02179437481461672
sI7016
F0.022546314427686395
sI7017
F2.8600311836738078e-31
sI7018
F3.5535647198680247e-47
sI7020
F0.984748892636728
sI7021
F0.5324515325775492
sI7023
F0.7882980354180353
sI7025
F0.9961376842396219
sI7027
F0.5450067793000513
sI7029
F1.0
sI7034
F1.0
sI7036
F1.0
sI7039
F0.09129760956624472
sI7041
F0.46715354813834525
sI7042
F0.020600144943465112
sI7047
F0.7361893529438862
sI7048
F0.4718726555380808
sI7050
F0.5637308967882941
sI7052
F0.7687543317053172
sI7054
F0.7949411891409007
sI7056
F0.3377280190022485
sI7058
F0.6145448422264359
sI7061
F0.13862668889027413
sI7062
F0.778758075524231
sI7063
F0.80265948376536
sI7066
F0.9915749603005631
sI7068
F0.846791696687276
sI7069
F0.4522396041065523
sI7074
F0.564204771579048
sI7076
F0.45776613561311946
sI7079
F0.555183432549119
sI7080
F0.3050642755336769
sI7081
F0.8480175039651134
sI7085
F0.40539022698790217
sI7089
F0.7764185204993833
sI7091
F0.5000345095068861
sI7092
F0.8006582720949129
sI7093
F0.9874644347425008
sI7095
F0.8607338045262596
sI7097
F0.5882398603495755
sI7099
F1.0
sI7102
F0.27761645557258247
sI7104
F0.4883026600277318
sI7105
F0.2636194203418097
sI7110
F0.4292753117259872
sI7111
F0.7842834055470893
sI7113
F0.23055268792597972
sI7115
F0.10886324367717073
sI7117
F0.5265627386730951
sI7123
F0.4331733087836278
sI7128
F0.8297961534481497
sI7130
F0.7039348297274574
sI7133
F0.8426928919717002
sI7134
F0.9122979888059075
sI7135
F1.0
sI7139
F0.7651600213183626
sI7143
F0.9901888699138657
sI7145
F0.9854890559355718
sI7146
F0.9851104698645776
sI7147
F1.0
sI7149
F0.9924526968276118
sI7151
F0.8775983840822258
sI7157
F0.14263807101844725
sI7161
F0.15141709471422246
sI7163
F0.06456765666848327
sI7172
F0.13908257817348657
sI7173
F0.5222817501207617
sI7175
F0.1190253461479127
sI7178
F0.33529198143849953
sI7179
F0.1275743175471663
sI7180
F1.0
sI7182
F0.8732806103568393
sI7183
F1.0
sI7185
F0.9978191312040204
sI7187
F0.999725196118002
sI7191
F0.8982485110579365
sI7193
F0.5361769924420419
sI7196
F0.26305190245896554
sI7197
F1.0
sI7198
F1.0
sI7203
F1.0
sI7204
F1.0
sI7210
F0.6797212078814631
sI7212
F0.2506207570132385
sI7213
F0.6280490611289545
sI7218
F0.4047306181801501
sI7219
F0.021293537023722692
sI7221
F0.03347792501671072
sI7223
F0.027598467306186265
sI7225
F0.03416393005616286
sI7231
F0.3604063157981522
sI7236
F0.5774444078037418
sI7237
F0.7944040764814072
sI7239
F0.36875855962004994
sI7241
F0.602471033150242
sI7243
F0.8460984477388698
sI7245
F0.5435775608334827
sI7247
F0.38353931243172007
sI7250
F0.0182232111876115
sI7251
F0.3116010162702597
sI7252
F0.03512038133363205
sI7255
F0.8773549789918771
sI7257
F0.5942339207601128
sI7258
F0.15606290731536424
sI7267
F6.835158514946968e-66
sI7273
F8.069530869021667e-80
sI7275
F7.167183174969036e-70
sI7292
F0.2805111753424306
sI7296
F0.5712813237377317
sI7298
F0.2706592806884841
sI7307
F0.9089307706755404
sI7308
F0.6553024972112256
sI7310
F0.10874610070989246
sI7313
F0.5681140030724546
sI7314
F0.7686330252345596
sI7315
F0.9994934812433873
sI7325
F0.21397777268029888
sI7337
F0.01860979897211846
sI7341
F0.12474418548153166
sI7343
F1.923926083808342e-75
sI7344
F0.6651009521964267
sI7346
F0.9684793739460072
sI7349
F0.8217797525514986
sI7350
F0.7040831237622569
sI7351
F0.7216276271027342
sI7355
F0.9999930518666719
sI7359
F0.5292884860863066
sI7361
F1.0
sI7362
F0.9220167594934895
sI7363
F0.877222118321097
sI7365
F0.9476450687174829
sI7367
F0.7141439556607647
sI7369
F1.0
sI7379
F0.15028090129707797
sI7391
F0.09180498269605089
sI7395
F0.2523803737769285
sI7397
F9.75546421973759e-96
sI7427
F0.9244678693956851
sI7431
F0.6285523942976514
sI7433
F0.9939477557600129
sI7442
F1.0
sI7443
F0.9376105166737796
sI7445
F0.5394713226866378
sI7448
F0.2683268370428414
sI7449
F0.35484730794627595
sI7450
F1.0
sI7452
F0.6846830576216564
sI7454
F0.7838742540024806
sI7457
F0.5838531954642879
sI7458
F0.7485712393122975
sI7459
F0.8382229961993868
sI7463
F0.4168398479080803
sI7467
F0.18911931313031616
sI7469
F0.45744823033255133
sI7470
F0.913527277449329
sI7471
F0.7759210539021507
sI7473
F0.8972823418189566
sI7475
F0.8852933270066029
sI7477
F0.9134489331853984
sI7481
F0.21819978130990442
sI7485
F0.35484273266231714
sI7487
F0.5024721165136699
sI7496
F0.6388916645229403
sI7497
F0.6771769174396471
sI7499
F0.9831214394169111
sI7502
F0.7199457449036294
sI7503
F0.0614750884052359
sI7504
F1.0
sI7506
F0.9561373834257159
sI7507
F0.48351256339850757
sI7509
F0.40685238446271355
sI7511
F0.9936924648709023
sI7513
F0.7965620866083093
sI7515
F0.08652260314668347
sI7517
F0.40378381231002436
sI7520
F0.0063063591903174
sI7521
F0.3938450305727019
sI7522
F9.439186683884633e-50
sI7525
F0.9525973820124807
sI7527
F0.9934345352168609
sI7528
F0.0291998137287593
sI7541
F0.23889394660930047
sI7553
F0.4434407174908823
sI7557
F0.8431940815644521
sI7559
F1.668739871813224e-63
sI7589
F0.8822554239929392
sI7593
F0.4744948067462207
sI7595
F0.9850910472565705
sI7604
F1.0
sI7605
F0.6047223943698163
sI7607
F0.6645553708499392
sI7610
F0.5076205616394436
sI7611
F0.4253559226960687
sI7612
F1.0
sI7676
F0.015922341623684135
sI7688
F0.0039045897480370333
sI7692
F0.042274081055839366
sI7694
F5.95426282942968e-93
sI7697
F0.7524613768074719
sI7701
F0.7217757211179097
sI7703
F0.38448107981904367
sI7712
F1.0
sI7713
F0.5007035507375972
sI7715
F0.9977525781482094
sI7718
F0.11617423387732509
sI7719
F0.288859187990996
sI7720
F0.09848759121505324
sI7730
F2.9834359465246157e-43
sI7742
F0.05689489306191327
sI7746
F4.781935997783995e-43
sI7748
F1.1198723710889116e-68
sI7749
F0.8998199668580852
sI7751
F1.0
sI7754
F1.0
sI7755
F0.99994875485928
sI7756
F0.25644752022280287
sI7760
F1.0
sI7764
F1.0
sI7767
F0.929270512094995
sI7768
F0.03324465486807802
sI7770
F0.6594916499815849
sI7772
F1.0
sI7774
F1.0
sI7776
F0.730070276564605
sI7778
F0.8273826336331936
sI7781
F0.5574105975827137
sI7782
F0.9880533247359122
sI7783
F0.864767195914925
sI7787
F0.7927858735771851
sI7791
F0.7394629945881114
sI7793
F1.0
sI7794
F0.8467382570434971
sI7795
F0.7120356136889876
sI7797
F0.8453970026364709
sI7799
F0.9626987383760167
sI7801
F1.0
sI7805
F0.427204913735036
sI7809
F0.5560487455338674
sI7811
F0.5231937088798422
sI7820
F1.0
sI7821
F0.7930627420984551
sI7823
F0.7976303618823724
sI7826
F0.41198164817162725
sI7827
F0.6427106476492235
sI7828
F1.0
sI7830
F0.7865008917718801
sI7831
F0.13299561225715797
sI7833
F0.8481381958620419
sI7835
F0.9632120638061376
sI7837
F0.8430951783467074
sI7839
F0.5303875905694732
sI7841
F0.9999970328622344
sI7844
F0.9386941993941754
sI7845
F0.821733203229146
sI7846
F0.2846424290484533
sI7849
F0.8879971936872924
sI7851
F0.9869737625994639
sI7852
F0.6029389407467296
sI7859
F0.39099089563903133
sI7863
F0.9939253600107273
sI7865
F0.9996047831941348
sI7874
F1.0
sI7875
F0.9632127036281114
sI7877
F0.9027659238845672
sI7880
F0.6619609929485161
sI7881
F0.99808878792586
sI7882
F1.0
sI7892
F0.6014746680760262
sI7904
F0.06582178949995299
sI7908
F0.6015342978938107
sI7910
F1.0229345649675571e-99
sI7911
F1.0
sI7913
F1.0
sI7916
F1.0
sI7917
F1.0
sI7918
F1.0
sI7922
F1.0
sI7926
F1.0
sI7929
F1.0
sI7930
F1.0
sI7932
F1.0
sI7934
F1.0
sI7938
F0.6817249350153225
sI7939
F0.8398006946020148
sI7941
F0.09347146366375836
sI7943
F0.4132709655165604
sI7945
F0.9961393098279211
sI7947
F0.008849891413463725
sI7949
F0.7379724769094893
sI7952
F0.004271354575698257
sI7953
F0.7057284795248555
sI7954
F5.854501201115326e-52
sI7957
F0.7932577498674719
sI7959
F0.9167568539163451
sI7960
F0.8615105566745757
sI7965
F0.4468750032554632
sI7967
F0.2982927764374757
sI7970
F0.36314120765625735
sI7971
F0.9295596777800248
sI7972
F1.0
sI7976
F0.06806819798053228
sI7980
F0.05383737540206408
sI7982
F1.0
sI7983
F1.0
sI7984
F1.0
sI7986
F1.0
sI7988
F1.0
sI7993
F2.166148198531909e-85
sI7995
F1.9701003098197426e-77
sI8001
F5.415370496329772e-85
sI8006
F1.4536774485912299e-90
sI8008
F7.167183174969036e-70
sI8014
F1.0726246343954222e-103
sI8019
F0.6248357365458334
sI8020
F0.7162704226762756
sI8022
F0.582720207108325
sI8024
F0.7607248949836317
sI8026
F0.48035970609924
sI8028
F0.6844676204600277
sI8030
F0.515311098568413
sI8033
F0.01300315467007341
sI8034
F0.8672997552954855
sI8035
F0.878100664557192
sI8038
F0.5968167895401432
sI8040
F0.33665055327916316
sI8041
F0.16430387377665284
sI8046
F0.33035005731115835
sI8048
F0.6946561075515661
sI8051
F0.6531827001785826
sI8052
F0.8398951586195167
sI8053
F0.23963294929827883
sI8057
F0.3418712250060931
sI8061
F0.46307052522382713
sI8063
F0.2389093189951801
sI8064
F0.43316538898994605
sI8065
F0.45753316945960854
sI8067
F0.7094052110120121
sI8069
F0.9465332476117693
sI8071
F0.9581251038281338
sI8074
F0.7585400772187285
sI8076
F0.6283625681075786
sI8077
F0.5161320026685305
sI8082
F0.34557273630454405
sI8083
F0.6605355861214439
sI8085
F0.28518663272854794
sI8087
F3.1521604957115886e-78
sI8089
F1.0
sI8095
F0.918992752638756
sI8100
F0.6563133945646817
sI8102
F0.6533155657735239
sI8105
F0.13558129875253075
sI8106
F0.6768623051506654
sI8107
F1.0
sI8111
F0.3304724530211008
sI8115
F0.8879532921110928
sI8117
F0.9486486962731511
sI8118
F0.9302079956614611
sI8119
F1.0
sI8121
F0.9165886578020447
sI8123
F0.9975393034630475
sI8129
F0.8002894685200286
sI8133
F0.780649168688359
sI8135
F0.19133618943035158
sI8144
F0.4009943923303713
sI8145
F0.9626898099753384
sI8147
F0.9877526069505923
sI8150
F1.0
sI8151
F0.9998308823398634
sI8152
F1.0
sI8154
F0.615004782828859
sI8155
F1.0
sI8157
F0.2685177892928114
sI8159
F2.166148198531909e-85
sI8163
F0.22613870245000184
sI8165
F4.091738259870229e-100
sI8169
F0.44705787267025887
sI8170
F1.0
sI8175
F0.9940656526056902
sI8176
F1.0
sI8182
F0.7545826118162307
sI8184
F0.445805754224296
sI8185
F0.2191142600286254
sI8190
F0.8091807034386955
sI8191
F0.8462791670655758
sI8193
F0.5894018478792771
sI8195
F0.6873493108160815
sI8197
F0.18543313295611058
sI8203
F8.872543021186704e-88
sI8208
F0.21626299910377794
sI8209
F0.03264828869606122
sI8211
F0.2018876282886762
sI8213
F0.5029388039548177
sI8215
F0.019648236458839424
sI8217
F0.5644281212164998
sI8219
F0.8341513306122227
sI8222
F0.742205885317742
sI8223
F0.14502808156875427
sI8224
F0.00993336384953164
sI8227
F5.1644997561738665e-81
sI8229
F2.734063405978787e-66
sI8239
F0.7215589598067188
sI8245
F0.4493033287800112
sI8247
F0.9990105683422542
sI8248
F1.0
sI8262
F0.6111267616817139
sI8264
F0.39901813163499367
sI8267
F0.38107357507639633
sI8268
F0.5934041739471756
sI8269
F0.5684099225172131
sI8273
F1.0
sI8277
F1.0
sI8280
F0.5801779870420423
sI8281
F0.5444966283938079
sI8283
F0.2009052611139727
sI8285
F0.16389126702894724
sI8287
F0.8992920796351576
sI8291
F0.7066890666914549
sI8295
F0.7827966233293152
sI8297
F0.6608061800827973
sI8306
F1.0
sI8307
F0.15171449359558747
sI8309
F0.3624410934272486
sI8312
F0.2429186831819769
sI8313
F0.10559674954120299
sI8314
F0.10367754562997086
sI8316
F0.8952420824635892
sI8317
F0.7105616556859942
sI8319
F0.08338429664172653
sI8321
F2.3714219875802523e-54
sI8323
F1.0
sI8325
F1.0
sI8332
F1.0
sI8335
F0.8625233912500558
sI8337
F0.32693120098803957
sI8338
F0.35158460528570623
sI8345
F0.5623138234238205
sI8349
F0.6652559578909504
sI8351
F0.3989483501215346
sI8360
F1.0
sI8361
F0.8382182583029469
sI8363
F0.5579276496403465
sI8366
F0.3384828266101041
sI8367
F0.9276331528148621
sI8368
F1.0
sI8378
F1.0
sI8390
F1.0
sI8394
F1.0
sI8397
F0.05216111206571415
sI8399
F3.995838144404519e-98
sI8403
F0.7294903486499892
sI8404
F1.0
sI8412
F1.0
sI8415
F0.9351632772436339
sI8416
F1.0
sI8418
F0.047105434431325324
sI8420
F4.091738259870229e-100
sI8424
F0.2295646292485332
sI8425
F0.22722420204515376
sI8427
F0.2173565091278104
sI8429
F0.854567166935537
sI8431
F0.7962092185339906
sI8433
F1.0
sI8438
F1.0
sI8440
F1.0
sI8443
F4.809815209520854e-75
sI8445
F7.880401239278971e-78
sI8451
F0.10187302394613088
sI8453
F0.8951525034804446
sI8456
F0.2569038866872488
sI8457
F0.8006695473186276
sI8458
F5.060481738420226e-43
sI8462
F1.0
sI8466
F1.0
sI8469
F2.1153791001288166e-83
sI8474
F1.353842624082443e-84
sI8476
F6.2165404551223794e-58
sI8479
F0.828757436139159
sI8481
F0.4229305710753247
sI8482
F0.13458311425551547
sI8488
F1.0
sI8490
F1.0
sI8500
F1.4196068833898728e-88
sI8506
F0.9739869030697468
sI8508
F0.6844477140603048
sI8509
F0.759874102100986
sI8514
F0.4617030335261298
sI8515
F0.6529338428750968
sI8517
F0.7054202616355435
sI8519
F0.02040721376526307
sI8521
F0.9847948367269508
sI8527
F0.529398416462814
sI8532
F0.4575188248123908
sI8533
F0.7813347918892666
sI8535
F0.5481354170838005
sI8537
F0.44256446117960774
sI8539
F0.49068052683057434
sI8541
F0.3517638883907904
sI8543
F0.059858843147908423
sI8546
F0.024056296696692514
sI8547
F0.922568049868244
sI8548
F0.9620171856494826
sI8551
F0.25042341951730196
sI8553
F0.9202185778732797
sI8554
F0.28190764822732106
sI8563
F0.916978260389292
sI8569
F0.7941506044663416
sI8571
F0.8197717476089935
sI8572
F1.0
sI8586
F0.9205831801874875
sI8587
F1.0
sI8589
F0.6762297686105783
sI8591
F0.9494152388475297
sI8595
F0.9182474321008368
sI8597
F0.054503377746373934
sI8600
F0.015390759427318405
sI8601
F0.9917959402757413
sI8602
F1.0
sI8607
F1.0
sI8608
F1.0
sI8613
F0.6811463986682249
sI8615
F0.07470051847652633
sI8618
F0.3499838543869701
sI8619
F0.8041822631459081
sI8620
F1.0
sI8624
F0.041297407698355215
sI8628
F0.9976470224070826
sI8630
F0.04624570233992843
sI8631
F1.0
sI8632
F1.0
sI8634
F1.0
sI8636
F1.0
sI8643
F0.9996506567894784
sI8644
F1.0
sI8649
F0.8769054742292715
sI8650
F1.0
sI8652
F0.8941673171213602
sI8654
F5.678427533559491e-89
sI8671
F0.28748419283143506
sI8677
F0.274254922852084
sI8679
F0.6973621296889856
sI8680
F1.0
sI8695
F0.23024291255431736
sI8697
F0.16849802638526093
sI8698
F0.002861575920800591
sI8703
F0.440341972003263
sI8704
F0.12062795355967623
sI8706
F0.6975237944279535
sI8708
F6.119548086410696e-05
sI8710
F0.03402089737703271
sI8716
F9.75546421973759e-96
sI8750
F0.6408131043276639
sI8754
F0.923485143289752
sI8756
F0.42862449044090034
sI8765
F0.9412153822891867
sI8766
F0.581748403807141
sI8768
F0.8295572851874715
sI8771
F0.8056821850453011
sI8772
F0.8516068645809303
sI8773
F0.8485115911455897
sI8783
F0.11930632146127496
sI8795
F0.12009364752205368
sI8799
F0.08153325051949337
sI8801
F2.4866161820489522e-58
sI8802
F0.8487433079905708
sI8804
F0.9973979426271015
sI8807
F0.8148315139724764
sI8808
F0.9599554747867707
sI8809
F0.8886211736017365
sI8813
F0.388024674489052
sI8817
F0.719066139694482
sI8819
F0.9904881346849914
sI8820
F0.9745999319672825
sI8821
F0.9987754695144591
sI8823
F0.7603353915898594
sI8825
F0.7713062710151535
sI8827
F1.0
sI8837
F0.39724901747193797
sI8849
F0.19008989812480143
sI8853
F0.38887541346275933
sI8855
F1.4196068833898728e-88
sI8885
F0.3214936930240903
sI8889
F0.8395230826303235
sI8891
F0.39661448678334565
sI8900
F0.3936685998880577
sI8901
F0.6125175361583235
sI8903
F0.1537679181112313
sI8906
F1.0
sI8907
F0.9637944231694981
sI8908
F1.0
sI8910
F0.5196652221419467
sI8912
F0.8418748684135533
sI8915
F0.09835883450882829
sI8916
F0.819695074635094
sI8917
F0.7260932570582848
sI8921
F0.9372526861541006
sI8925
F0.9487246243687086
sI8927
F1.0
sI8928
F0.7236006889129876
sI8929
F0.5499180233215211
sI8931
F0.14506478479842086
sI8933
F0.4374419143489807
sI8935
F0.792781465460652
sI8939
F0.48641525779812483
sI8943
F0.7105369991181342
sI8945
F0.917924323071692
sI8954
F1.0
sI8955
F0.8264073562866836
sI8957
F0.8709063686067011
sI8960
F0.0999108826321091
sI8961
F0.161780767619632
sI8962
F0.09659153365403714
sI8964
F0.8951886519629407
sI8965
F0.009892342990043388
sI8967
F0.10733675315619326
sI8969
F0.9545803040969094
sI8971
F0.9991514022757021
sI8973
F0.6029517277916111
sI8975
F0.9964921545857266
sI8978
F6.68471758392819e-43
sI8979
F0.9646117248941342
sI8980
F0.7419941563816307
sI8983
F0.023122790540181536
sI8985
F0.7564702390382887
sI8986
F5.7250848882089874e-42
sI8999
F0.3069049144770379
sI9011
F0.013779445712637759
sI9015
F0.2885481224304546
sI9017
F6.365737426045318e-60
sI9047
F0.6165657129946147
sI9051
F0.9903429538587508
sI9053
F0.7598410591098876
sI9062
F1.0
sI9063
F0.5305967241044379
sI9065
F0.1817363724376328
sI9068
F0.04817791363633343
sI9069
F0.43580141049161325
sI9070
F1.0
sI9134
F2.3083287593286403e-42
sI9146
F1.2287996257850977e-44
sI9150
F0.6159735268097989
sI9152
F1.5541351137805946e-57
sI9155
F0.8547708656522713
sI9159
F0.956406133682922
sI9161
F0.9844977444511094
sI9170
F1.0
sI9171
F0.17059891931960158
sI9173
F0.7967735696801368
sI9176
F0.11160708071271863
sI9177
F0.9460340059272612
sI9178
F0.13732551170941618
sI9188
F0.3575143472137049
sI9200
F5.364171497133359e-46
sI9204
F1.1511943709577223e-34
sI9206
F6.2165404551223794e-58
sI9207
F0.8718065163519475
sI9209
F0.9983125621638311
sI9212
F0.33907137784436936
sI9213
F1.0
sI9214
F1.0
sI9218
F1.0
sI9222
F1.0
sI9225
F0.7186717700417902
sI9226
F0.04700655176344924
sI9228
F0.021504025897740885
sI9230
F1.0
sI9232
F1.0
sI9234
F0.6088259967664917
sI9236
F0.8201482362596775
sI9239
F0.9625366607704263
sI9240
F0.8986888791886875
sI9241
F0.8891123607585762
sI9245
F0.40111536720734675
sI9249
F0.8538268587335651
sI9251
F0.9836981430567475
sI9252
F0.8396657878903587
sI9253
F0.8646674325571202
sI9255
F0.8650769311886682
sI9257
F1.0
sI9259
F1.0
sI9263
F0.35033214064451107
sI9267
F0.7112098973018695
sI9269
F0.7465408452049797
sI9278
F0.7486434532202721
sI9279
F0.7618919737894292
sI9281
F0.8050055009224062
sI9284
F1.0
sI9285
F0.754041188356837
sI9286
F1.0
sI9288
F0.4387096358443582
sI9289
F0.062263154577610766
sI9291
F0.40177128111759175
sI9293
F0.9516218861330696
sI9295
F0.8163695532439945
sI9297
F0.20246287531910476
sI9299
F0.4853738838847987
sI9302
F2.590203286098097e-30
sI9303
F0.8260414745916249
sI9304
F0.7138471711055203
sI9307
F0.9998779785397851
sI9309
F0.999986632258677
sI9310
F0.11858936706177112
sI9317
F0.6176468345654442
sI9321
F0.9879109392924151
sI9323
F0.9949699894692686
sI9332
F0.9793384482708194
sI9333
F0.9720934340176951
sI9335
F0.9999999876795508
sI9338
F1.0
sI9339
F0.9991528585650205
sI9340
F1.0
sI9350
F0.0063551788266373345
sI9362
F0.37446317392066475
sI9366
F0.017911319006319853
sI9368
F1.4536774485912299e-90
sI9369
F0.7922921293212473
sI9371
F0.677037487446887
sI9374
F1.0
sI9375
F1.0
sI9376
F1.0
sI9380
F0.6960140996659891
sI9384
F1.0
sI9386
F1.0
sI9387
F1.0
sI9388
F1.0
sI9390
F1.0
sI9396
F0.37744923256119384
sI9397
F0.3474105370755681
sI9399
F0.19941258330648298
sI9401
F0.6684629106485147
sI9403
F0.39000340446158366
sI9405
F0.08880944663879875
sI9407
F0.9529844795572856
sI9410
F0.07329659580957579
sI9411
F0.887037683455756
sI9412
F0.02427046035949619
sI9415
F0.43382800370105046
sI9417
F0.7796790836410886
sI9418
F3.154197772594106e-42
sI9423
F0.6732042560462683
sI9425
F0.7695489236841428
sI9428
F0.09135962233030594
sI9429
F0.8950691914347024
sI9430
F0.15879623915481336
sI9434
F0.719356683343076
sI9438
F0.9920152807878068
sI9440
F1.0
sI9441
F0.96719885547291
sI9442
F0.13733919542193568
sI9444
F0.8568249817809928
sI9446
F1.0
sI9448
F1.0
sI9451
F2.7996809277222788e-68
sI9453
F2.3158417847463393e-52
sI9459
F1.1467493079950457e-70
sI9464
F1.042962419883265e-62
sI9466
F7.880401239278971e-78
sI9472
F1.3803492693581213e-47
sI9485
F1.0
sI9497
F1.0
sI9501
F1.0
sI9533
F1.0
sI9537
F1.0
sI9548
F1.0
sI9549
F1.0
sI9554
F1.0
sI9556
F1.0
sI9620
F1.0
sI9632
F1.0
sI9636
F1.0
sI9641
F1.0
sI9645
F1.0
sI9656
F1.0
sI9657
F1.0
sI9662
F1.0
sI9664
F1.0
sI9674
F1.0
sI9686
F1.0
sI9690
F1.0
sI9693
F1.0
sI9698
F1.0
sI9700
F1.0
sI9704
F1.0
sI9708
F1.0
sI9712
F1.0
sI9714
F1.0
sI9782
F1.0
sI9794
F1.0
sI9798
F1.0
sI9890
F1.0
sI9902
F1.0
sI9906
F1.0
sI9938
F1.0
sI9942
F1.0
sI9953
F1.0
sI9954
F1.0
sI9959
F1.0
sI9961
F1.0
sI9965
F1.0
sI9969
F1.0
sI9980
F1.0
sI9981
F1.0
sI9986
F1.0
sI9988
F1.0
sI9998
F1.0
sI10010
F1.0
sI10014
F1.0
sI10017
F1.0
sI10022
F1.0
sI10024
F1.0
sI10028
F1.0
sI10032
F1.0
sI10036
F1.0
sI10038
F1.0
sI10052
F1.0
sI10064
F1.0
sI10068
F1.0
sI10100
F1.0
sI10104
F1.0
sI10115
F1.0
sI10116
F1.0
sI10121
F1.0
sI10123
F1.0
sI10125
F1.0
sI10130
F1.0
sI10132
F1.0
sI10136
F1.0
sI10140
F1.0
sI10144
F1.0
sI10146
F1.0
sI10154
F1.0
sI10158
F1.0
sI10169
F1.0
sI10170
F1.0
sI10175
F1.0
sI10177
F1.0
sI10206
F0.5117474525492739
sI10208
F0.32472170511820375
sI10211
F0.4275232816099794
sI10212
F0.510681290428718
sI10213
F0.4435133091086838
sI10217
F0.40247517124662463
sI10221
F0.9128060545501718
sI10223
F0.3634201888373322
sI10224
F0.5159045812503578
sI10225
F0.6727581473248616
sI10227
F0.40204727733905204
sI10229
F0.6572112815384735
sI10231
F0.9288811116173367
sI10235
F0.43041584576390346
sI10239
F0.04533725706509671
sI10241
F0.465480092867134
sI10250
F0.016887493230966985
sI10251
F0.037005038746774216
sI10253
F0.5107037024889927
sI10256
F0.600000663377358
sI10257
F0.0017622600647232201
sI10258
F0.8939192769901801
sI10260
F0.44080645367648186
sI10261
F0.6139721755749669
sI10263
F0.2083118267362788
sI10265
F3.7053468555941432e-53
sI10267
F1.0
sI10269
F0.20359234326110662
sI10271
F1.791795793742259e-69
sI10275
F0.8881046780056171
sI10276
F1.0
sI10279
F0.7748195458999156
sI10281
F0.7916299296293368
sI10282
F0.7116201653103555
sI10289
F0.06073035698644201
sI10293
F0.3260051567822424
sI10295
F0.01612151959718775
sI10304
F0.012069211824144204
sI10305
F0.912935991653448
sI10307
F0.956143183695706
sI10310
F1.0
sI10311
F0.2314846209113096
sI10312
F1.0
sI10322
F0.022747000130441467
sI10334
F0.7056114190820082
sI10338
F0.29637490666999744
sI10340
F1.799565517817304e-108
sI10341
F0.5430664302196642
sI10343
F1.2911249390434666e-80
sI10347
F0.7353974520555657
sI10348
F1.0
sI10356
F0.10502405744695342
sI10358
F6.3933410310472306e-99
sI10359
F0.9774940392578729
sI10360
F1.0
sI10362
F1.0
sI10368
F0.5707714477219296
sI10369
F0.3081133449094483
sI10371
F0.004272098838132475
sI10373
F0.0023290607057959876
sI10375
F0.10409570560215331
sI10377
F0.7336989377379567
sI10379
F0.7526280885196261
sI10382
F0.0007378535598960257
sI10383
F0.7398569645143512
sI10384
F0.6703830874751793
sI10387
F2.166148198531909e-85
sI10389
F2.6699837949011588e-64
sI10395
F0.07831123994791127
sI10397
F0.2886672865694915
sI10400
F0.029286969360829345
sI10401
F0.06121718899027742
sI10402
F0.08523179576855665
sI10406
F0.9912365061119928
sI10410
F0.38450626999591697
sI10412
F1.0
sI10413
F1.8347988927920732e-71
sI10418
F5.545339388241689e-87
sI10420
F1.2911249390434666e-80
sI10423
F0.5337250228542019
sI10425
F5.714181461768268e-45
sI10426
F6.978342019155314e-48
sI10431
F0.21192529458769546
sI10432
F0.25575523564741637
sI10434
F1.8468954527387952e-45
sI10436
F1.1467493079950457e-70
sI10438
F1.0
sI10444
F2.734063405978787e-66
sI10451
F0.03859920657479761
sI10455
F0.6521521938742298
sI10457
F0.07810057314297586
sI10466
F1.0
sI10467
F0.05206238512545722
sI10469
F2.107907101018706e-38
sI10472
F3.758543402621352e-40
sI10473
F0.19679185664590354
sI10474
F0.7432326254984596
sI10484
F0.25783261439037636
sI10496
F5.0915653267916553e-42
sI10500
F4.635120874096787e-37
sI10502
F2.4283361152821786e-56
sI10503
F0.45933389034002003
sI10505
F9.94646472819581e-59
sI10509
F0.8950259269309649
sI10510
F1.0
sI10518
F1.0
sI10521
F0.2096810136223476
sI10522
F0.6030819858399301
sI10524
F5.337555113278739e-32
sI10526
F5.265614583427888e-44
sI10528
F1.0
sI10538
F6.958890244647957e-53
sI10550
F2.743816571771663e-59
sI10554
F0.017905696920899012
sI10556
F1.923926083808342e-75
sI10590
F0.015607638174129777
sI10592
F3.72141426839355e-92
sI10602
F0.9744277200464644
sI10604
F9.989595361011296e-98
sI10608
F1.0
sI10609
F1.0
sI10611
F0.5127062969427856
sI10613
F0.7010509685709986
sI10616
F2.284627354679656e-43
sI10617
F0.9142718840638702
sI10618
F0.018039718830896407
sI10622
F1.0
sI10626
F1.0
sI10629
F1.2911249390434666e-80
sI10634
F1.2024538023802136e-74
sI10636
F2.2713710134237964e-89
sI10640
F0.7512259470938623
sI10644
F0.7031272979499505
sI10646
F1.0
sI10655
F1.0
sI10658
F8.461516400515267e-84
sI10662
F1.878834066219083e-73
sI10665
F0.5132665073787981
sI10666
F0.8467932950840817
sI10668
F7.130003985025189e-50
sI10670
F4.6970851655477075e-73
sI10672
F1.0
sI10674
F1.0
sI10681
F1.0
sI10684
F1.32211193758051e-82
sI10686
F1.174271291386927e-72
sI10692
F0.4720579463791445
sI10693
F0.7131311590902701
sI10695
F0.5521570343236158
sI10697
F0.8514153870614206
sI10699
F0.936235876100315
sI10701
F0.09543892718202504
sI10703
F0.03027537261246391
sI10706
F0.015323507894399842
sI10707
F0.8916287883364438
sI10708
F0.9990330167360016
sI10711
F0.9592000976171002
sI10713
F0.9075914225070306
sI10714
F0.3985441660894441
sI10719
F0.45852092287578067
sI10721
F0.16164910257914133
sI10724
F0.4007566878650961
sI10725
F0.38159420026457314
sI10726
F0.7192682358540972
sI10730
F0.021120089042926227
sI10734
F0.034162322514336964
sI10736
F0.0015680599178266052
sI10737
F0.7349566706828398
sI10738
F0.9376088234975459
sI10740
F0.8962185677448897
sI10742
F1.0
sI10744
F1.0
sI10747
F0.9938501851346015
sI10749
F0.3002181951235855
sI10750
F0.6239641576886401
sI10755
F0.28705426136296863
sI10756
F0.26403633644230345
sI10758
F8.791747382646136e-32
sI10760
F3.6185027886661547e-51
sI10762
F1.0
sI10768
F1.0
sI10773
F0.7830937548812237
sI10775
F0.6805478586551899
sI10778
F1.0
sI10779
F0.8227484932035776
sI10780
F1.0
sI10784
F0.021397394088221954
sI10788
F0.3844821476606062
sI10790
F0.030353069012583667
sI10791
F1.0
sI10792
F1.0
sI10794
F1.0
sI10802
F0.6596964308669568
sI10806
F0.8654241229058282
sI10808
F0.016191899008652786
sI10817
F5.2428800000000036e-05
sI10818
F1.0
sI10820
F1.0
sI10823
F1.0
sI10824
F1.0
sI10825
F1.0
sI10827
F0.9284315267038775
sI10828
F1.0
sI10830
F1.0
sI10836
F0.37734062940578117
sI10838
F3.902185687895036e-96
sI10842
F1.0
sI10843
F1.0
sI10849
F1.0
sI10855
F0.02687567776728672
sI10857
F0.002337121502718095
sI10858
F6.515115091790254e-48
sI10863
F0.01051991647868956
sI10864
F0.002345350033616922
sI10866
F0.058735791815950046
sI10868
F0.09608145572674193
sI10870
F0.01437105926308594
sI10876
F1.749800579826424e-67
sI10881
F0.02142433019553711
sI10882
F0.07739729362118597
sI10884
F0.0013438123750162518
sI10886
F0.04822591511470889
sI10888
F0.04485026416035481
sI10890
F0.039068665710320444
sI10892
F0.019540799156984468
sI10895
F0.03200000000000001
sI10896
F0.01298177507346587
sI10897
F0.0003276800000000002
sI10900
F1.0474849945267791e-101
sI10902
F1.878834066219083e-73
sI10912
F4.809815209520854e-75
sI10918
F1.4196068833898728e-88
sI10920
F2.8668732699876145e-70
sI10935
F0.5662713746235896
sI10936
F0.5277735848316569
sI10938
F0.6838509070976957
sI10940
F0.4660551860844304
sI10942
F0.9434616290559734
sI10944
F0.8803271044100331
sI10946
F0.7617626271330056
sI10949
F0.5640804230313284
sI10950
F0.7717297779042309
sI10951
F0.6309703125812617
sI10954
F0.938846575547993
sI10956
F0.4917263567165353
sI10957
F0.4113882291087456
sI10962
F0.6119679861410737
sI10964
F0.3981692519307241
sI10967
F0.12330214840263144
sI10968
F0.8022685704662571
sI10969
F0.7553169473744978
sI10973
F0.7136325819378971
sI10977
F0.7514576604131216
sI10979
F0.605129147865729
sI10980
F0.7378462043549712
sI10981
F0.530642205355617
sI10983
F0.7089973291273195
sI10985
F0.6947146898838061
sI10987
F0.7850582472650741
sI10990
F0.951303044000472
sI10992
F0.7438871521985714
sI10993
F0.9252950605657628
sI10998
F0.9393583152911458
sI10999
F0.4239241915401565
sI11001
F0.8470930437167541
sI11003
F0.397879163727786
sI11005
F0.996349703810635
sI11011
F0.8234081451787467
sI11016
F0.5102580066123484
sI11018
F0.40298363539457327
sI11021
F0.21420845978074143
sI11022
F0.9155134819634755
sI11023
F1.0
sI11027
F0.9115935417144209
sI11031
F1.0
sI11033
F1.0
sI11034
F0.6815545615681666
sI11035
F1.0
sI11037
F0.4405749435503674
sI11039
F0.3290114877428698
sI11045
F0.7064953758935419
sI11049
F0.7828156632077727
sI11051
F0.8726134209302989
sI11060
F1.0
sI11061
F0.9004689742520399
sI11063
F0.9546257903327429
sI11066
F0.4595551918714995
sI11067
F0.9999912938983182
sI11068
F1.0
sI11070
F0.7846228240238138
sI11071
F1.0
sI11073
F0.4243638649496435
sI11075
F0.5205361821963452
sI11079
F0.9043749210959214
sI11081
F0.9999653199055025
sI11084
F0.00630194819515943
sI11085
F1.0
sI11086
F1.0
sI11091
F0.9936030093994944
sI11092
F1.0
sI11098
F0.2274383337821384
sI11100
F0.6228292782954586
sI11101
F0.4949567652195052
sI11106
F0.9887981195063754
sI11107
F0.18536352806734369
sI11109
F0.9718248758836799
sI11111
F0.9673176758030925
sI11113
F3.4658371176510554e-86
sI11119
F0.2277990624490771
sI11124
F0.31373293021775467
sI11125
F0.35184956623408353
sI11127
F0.28247264925550386
sI11129
F0.5768012998064034
sI11131
F1.5541351137805946e-57
sI11133
F0.6391206656298262
sI11135
F0.8852492281709226
sI11138
F0.7260006587808425
sI11139
F8.263199609878187e-82
sI11143
F0.3695859331393106
sI11145
F0.21947070631545137
sI11146
F0.28454642655947127
sI11155
F0.2906757333042577
sI11161
F0.3998423517556713
sI11163
F0.7654981295945695
sI11164
F1.0
sI11178
F0.501269781733203
sI11180
F0.768983986548652
sI11183
F0.40165647343990646
sI11184
F0.8634197012079123
sI11185
F0.05008944214056159
sI11189
F1.0
sI11193
F1.0
sI11196
F0.33754457253133097
sI11197
F0.7137933023604888
sI11199
F0.4075706193511806
sI11201
F0.6154446615872179
sI11203
F0.6837029679860117
sI11207
F0.40608138702846
sI11211
F0.37725673432527784
sI11213
F0.7417246408567097
sI11222
F1.0
sI11223
F0.6745061770986767
sI11225
F0.8014542152548367
sI11228
F0.976031153216564
sI11229
F0.7153337619412786
sI11230
F0.10461644959058053
sI11232
F0.8601372004057811
sI11233
F0.9306550011542641
sI11235
F0.5950094250284634
sI11237
F0.7669764262794072
sI11239
F0.9048745973786602
sI11241
F1.0
sI11246
F1.0
sI11248
F1.0
sI11251
F0.9864962301708329
sI11253
F0.1384839635051362
sI11254
F0.8540562478523132
sI11261
F0.39448931609817395
sI11265
F0.9938058654972904
sI11267
F0.9735974838870652
sI11276
F1.0
sI11277
F0.6410451124020388
sI11279
F0.4926440339973953
sI11282
F0.7080708067953458
sI11283
F0.7273991459135902
sI11284
F1.0
sI11294
F1.0
sI11306
F1.0
sI11310
F1.0
sI11313
F0.4649163566304376
sI11315
F0.2907148224330134
sI11318
F0.013443534478190158
sI11319
F1.0
sI11320
F1.0
sI11324
F1.0
sI11328
F1.0
sI11331
F0.7838019632388388
sI11332
F1.0
sI11334
F0.14079117866030888
sI11336
F0.053282093691366356
sI11340
F0.9344944595393485
sI11341
F0.21672021206888198
sI11343
F0.7830460267571236
sI11345
F0.4074091543736709
sI11347
F1.668739871813224e-63
sI11349
F1.0
sI11354
F1.0
sI11359
F0.04966643849755777
sI11361
F0.030524661168549544
sI11362
F0.04877904673074121
sI11367
F0.17775362194127986
sI11369
F0.10823358644767808
sI11372
F0.306408453953813
sI11373
F1.7087896287367417e-65
sI11378
F1.0
sI11385
F0.0008838423124371689
sI11386
F9.99713346458624e-48
sI11388
F2.385006520117618e-05
sI11390
F0.002888150353946668
sI11392
F1.0936253623915149e-66
sI11395
F0.7248736252268997
sI11397
F0.6516902607916553
sI11398
F0.42316122506488185
sI11404
F1.0
sI11406
F1.0
sI11416
F0.03192460398018529
sI11422
F0.9750114583786181
sI11424
F0.5442426144424994
sI11425
F0.9971815904958675
sI11430
F0.7475864585984497
sI11431
F0.7761243652894878
sI11433
F0.9524810407203309
sI11435
F0.6297248385981139
sI11437
F0.5733190835959205
sI11443
F1.0
sI11448
F0.46621997217581046
sI11449
F0.8915214701849665
sI11451
F0.3648906540467671
sI11453
F0.11199151814766176
sI11455
F0.8390281815802687
sI11457
F0.476054164626246
sI11459
F0.7838173947912015
sI11462
F0.08923294601128379
sI11463
F0.980095059996709
sI11464
F0.7356152199046022
sI11467
F1.0
sI11469
F0.9694732443501831
sI11470
F1.0
sI11479
F0.9992963440044751
sI11485
F0.7070287558640569
sI11487
F0.7844373597778553
sI11488
F1.0
sI11502
F0.6275966863106108
sI11503
F1.0
sI11505
F0.7582157769005958
sI11507
F0.14330416344519134
sI11511
F0.6658970178906125
sI11513
F0.732926448825273
sI11516
F0.8708752471294019
sI11517
F1.0
sI11518
F1.0
sI11523
F0.539034893880515
sI11524
F1.0
sI11529
F0.3035682222667337
sI11531
F0.5942561079563002
sI11534
F0.12011978634330436
sI11535
F1.0
sI11536
F1.0
sI11540
F0.2785032869829327
sI11544
F1.0
sI11546
F1.0
sI11547
F0.22597866835179142
sI11548
F1.0
sI11550
F0.08151827016928619
sI11552
F0.1080124251021522
sI11559
F1.0
sI11560
F1.0
sI11565
F1.0
sI11566
F1.0
sI11568
F1.0
sI11570
F1.0
sI11587
F0.9999445635666471
sI11593
F0.6077303402059709
sI11595
F0.9574897875833505
sI11596
F1.0
sI11611
F0.9975127520556903
sI11613
F0.5957188892218217
sI11614
F1.0
sI11619
F0.5165122197145754
sI11620
F0.6610853018517272
sI11622
F0.38862995269168166
sI11624
F0.010281033123348066
sI11626
F1.9701003098197426e-77
sI11632
F1.0
sI11664
F0.5843970546719457
sI11666
F0.5070920486599887
sI11669
F0.4935120460635354
sI11670
F0.3920759308599754
sI11671
F0.8466117952429637
sI11675
F0.4297414690198389
sI11679
F0.2411725461053389
sI11681
F0.9759856715705111
sI11682
F0.459959774510055
sI11683
F0.7529020492593796
sI11685
F0.4675025807835025
sI11687
F0.06556229024506668
sI11689
F0.9998549312579164
sI11693
F0.3502633002723999
sI11697
F0.08829715280961617
sI11699
F0.4015867920781677
sI11708
F0.3584877944264443
sI11709
F0.5057794306750795
sI11711
F0.03351455971376988
sI11714
F0.0328874693060359
sI11715
F0.14071700777090465
sI11716
F1.0
sI11718
F0.6659330321114653
sI11719
F0.7876650213900646
sI11721
F0.29471849798980954
sI11723
F0.8200029996566611
sI11725
F0.9076904452016239
sI11727
F0.5342830002849434
sI11729
F1.0
sI11732
F1.0
sI11733
F0.41250097774420785
sI11734
F0.24161246203046172
sI11737
F0.9437456118333503
sI11739
F0.7381723847842597
sI11740
F0.07295788753153262
sI11747
F0.5921573050264543
sI11751
F0.8211422148482449
sI11753
F0.9666066579842011
sI11762
F1.0
sI11763
F0.15660096628626255
sI11765
F0.08451292173395822
sI11768
F0.04683195304805039
sI11769
F0.3301870310156914
sI11770
F1.0
sI11780
F0.6182744166404812
sI11792
F0.08308559260746717
sI11796
F0.7139073982645212
sI11798
F3.72141426839355e-92
sI11799
F0.7519920619607716
sI11801
F0.9342401011265655
sI11804
F0.27972098148481656
sI11805
F1.0
sI11806
F1.0
sI11810
F1.0
sI11814
F1.0
sI11817
F0.30073240456600303
sI11818
F1.0
sI11820
F0.37993640711451687
sI11822
F0.056248230764914725
sI11826
F0.23432262542190008
sI11827
F0.18382232615350452
sI11829
F0.5387258376442312
sI11831
F0.3231866638119915
sI11833
F1.2911249390434666e-80
sI11835
F0.212845675676975
sI11837
F0.08536087582610326
sI11840
F0.02289868100694764
sI11841
F2.5573364124188926e-99
sI11845
F0.6478430587699034
sI11847
F0.29639922687529346
sI11848
F0.7705681120200096
sI11853
F0.0024269800393554503
sI11855
F0.031404119127495175
sI11858
F0.03434666348554166
sI11859
F1.174271291386927e-72
sI11864
F0.025038961902882545
sI11870
F1.0229345649675571e-99
sI11871
F0.27827277152397817
sI11872
F1.0
sI11874
F0.19985005121237975
sI11876
F0.030169339845237064
sI11881
F0.0038456488548805914
sI11883
F0.6217576450199265
sI11884
F0.0047244759603688145
sI11889
F0.7143090867778344
sI11890
F2.278538685694323e-53
sI11892
F0.8436876365978239
sI11894
F1.0
sI11896
F4.809815209520854e-75
sI11902
F0.13940218497948592
sI11909
F0.9415170861706048
sI11913
F0.772402051214771
sI11915
F0.3888946695752773
sI11924
F1.0
sI11925
F0.12217460186292552
sI11927
F0.09512222225436766
sI11930
F0.136176941842639
sI11931
F0.051665703624345624
sI11932
F0.06032440378334357
sI11942
F9.842533083711999e-37
sI11954
F0.03199541396134149
sI11958
F1.3030597380967592e-37
sI11960
F5.653910607290866e-50
sI11961
F0.5775749031899036
sI11963
F0.9854295201615216
sI11966
F0.7022070212314423
sI11967
F0.5903149329625169
sI11968
F0.6970560246134461
sI11972
F1.0
sI11976
F1.0
sI11979
F0.5925352030586979
sI11980
F0.40882949401551827
sI11982
F0.15179948134068544
sI11984
F0.1895311038962404
sI11986
F1.0
sI11996
F0.9911991742941989
sI12008
F0.09969314208027019
sI12012
F0.007215146309172204
sI12014
F1.0474849945267791e-101
sI12044
F0.9052493849922764
sI12048
F1.0
sI12050
F1.0
sI12059
F1.0
sI12060
F0.08278515635685027
sI12062
F0.1411959829699792
sI12065
F0.03200000000000001
sI12066
F1.0
sI12067
F1.0
sI12069
F0.28354585833606205
sI12071
F0.9460423210367669
sI12074
F0.9987909165092154
sI12075
F3.078281734093347e-76
sI12080
F1.0
sI12087
F0.11191601378607086
sI12088
F0.0028065361925566972
sI12090
F0.07451226493623662
sI12092
F0.05515030292595288
sI12094
F2.381705131771872e-93
sI12098
F0.00030332713225388833
sI12104
F3.2278123476086668e-80
sI12114
F0.016735956461829987
sI12116
F0.023387169264121203
sI12119
F0.005120000000000001
sI12120
F2.0173827172554165e-79
sI12123
F0.42944344850914556
sI12124
F0.002616645798460277
sI12126
F0.07141574469599848
sI12128
F1.0
sI12130
F1.4536774485912299e-90
sI12132
F1.0
sI12137
F1.0
sI12142
F0.008940115574943631
sI12144
F0.05991701520136551
sI12145
F0.012800000000000002
sI12150
F0.677362234667114
sI12151
F0.836942861554345
sI12153
F0.321157890755402
sI12155
F0.5096559764688152
sI12157
F0.7730277732200432
sI12159
F0.6229745727560012
sI12161
F0.8094575222819307
sI12164
F0.7025074197694665
sI12165
F0.9185482035034785
sI12166
F0.1353979229005225
sI12169
F1.0
sI12171
F0.8387251504823244
sI12172
F1.0
sI12177
F0.310147218310911
sI12179
F0.08540713955119988
sI12182
F0.026704774634454316
sI12183
F0.8332954361967395
sI12184
F1.0
sI12188
F0.999448966385388
sI12192
F0.3539100296050628
sI12194
F1.0
sI12195
F0.9984457673793836
sI12196
F1.0
sI12198
F0.8975213722962525
sI12200
F0.06404349914856612
sI12205
F0.9724888966398472
sI12207
F0.23346903206439665
sI12208
F0.053770170648659535
sI12213
F0.38601189598613384
sI12214
F0.00022191795407489875
sI12216
F0.041314690397077705
sI12218
F1.0
sI12220
F1.0
sI12226
F1.0
sI12231
F0.8012640537955673
sI12233
F0.693494679113219
sI12236
F0.2885365896184698
sI12237
F1.0
sI12238
F1.0
sI12242
F1.0
sI12246
F1.0
sI12249
F0.8371450846024581
sI12250
F1.0
sI12252
F0.3065523028063318
sI12254
F0.02775172086619984
sI12260
F0.7286949174228408
sI12264
F1.0
sI12266
F1.0
sI12275
F1.0
sI12276
F0.6336689783837584
sI12278
F0.1370139495441498
sI12281
F0.012800000000000002
sI12282
F1.0
sI12283
F1.0
sI12285
F1.0
sI12286
F1.0
sI12288
F1.0
sI12290
F1.0
sI12294
F1.0
sI12299
F1.0
sI12301
F1.0
sI12306
F1.0
sI12307
F1.0
sI12313
F0.2902925567340824
sI12315
F0.20340109292776398
sI12316
F0.1432274462803029
sI12321
F0.022433278751255257
sI12322
F6.602477043385354e-45
sI12324
F0.026452176142512086
sI12326
F0.007408399442743975
sI12328
F4.37450144956606e-67
sI12334
F1.0
sI12339
F0.18375586020426915
sI12340
F1.0
sI12342
F0.3148063573162517
sI12344
F0.003407632002443951
sI12348
F0.013779113915544466
sI12350
F0.04112119119006836
sI12353
F0.0003276800000000002
sI12354
F5.0434567931385415e-79
sI12360
F1.0
sI12361
F1.0
sI12370
F3.384606560206107e-84
sI12376
F1.353842624082443e-84
sI12378
F7.880401239278971e-78
sI12394
F0.8807559990598454
sI12396
F0.6946929374425803
sI12397
F0.5921076837686656
sI12402
F0.9506139652848019
sI12403
F0.888637263743464
sI12405
F0.950487724913374
sI12407
F0.27649783503862874
sI12409
F0.8457095855346626
sI12415
F0.3285803478211346
sI12420
F0.6705821965828834
sI12421
F0.3561702644103713
sI12423
F0.7391761839045394
sI12425
F0.5954907870140099
sI12427
F0.4885127293269923
sI12429
F0.6931586069507997
sI12431
F0.4106675069130751
sI12434
F0.3708581921152909
sI12435
F0.9988540158226897
sI12436
F0.3897606548003124
sI12439
F0.6639947187239617
sI12441
F0.8900466188667421
sI12442
F0.10312865368492682
sI12451
F1.0
sI12457
F1.0
sI12459
F0.969258091420168
sI12460
F1.0
sI12474
F0.772901719391268
sI12475
F1.0
sI12477
F0.6913573986907214
sI12479
F0.04342524924288155
sI12483
F0.8647658617957896
sI12485
F0.9582646471292833
sI12488
F0.0006879697782411068
sI12489
F1.0
sI12490
F1.0
sI12495
F1.0
sI12496
F1.0
sI12501
F0.8766504951265038
sI12503
F0.4953681527602526
sI12506
F0.04888072657480792
sI12507
F1.0
sI12508
F1.0
sI12512
F0.08783183649477869
sI12516
F1.0
sI12518
F1.0
sI12519
F1.0
sI12520
F1.0
sI12522
F1.0
sI12524
F1.0
sI12531
F0.7097521706686911
sI12532
F1.0
sI12537
F0.9044698021320318
sI12538
F1.0
sI12540
F0.04717402561263272
sI12542
F6.3933410310472306e-99
sI12559
F0.9969051526814112
sI12565
F0.9720916997421204
sI12567
F1.0
sI12568
F1.0
sI12583
F0.37476034045327816
sI12585
F0.22644307447611112
sI12586
F0.24620717355270583
sI12591
F0.7762127910532803
sI12592
F0.1175040081574997
sI12594
F1.0
sI12596
F1.0
sI12598
F2.381705131771872e-93
sI12604
F5.545339388241689e-87
sI12636
F0.9106589677294954
sI12637
F0.514652767537212
sI12639
F0.7223652622368779
sI12641
F0.4949999634462375
sI12643
F0.5259630247353065
sI12645
F1.0
sI12650
F1.0
sI12652
F1.0
sI12655
F0.7832183144427856
sI12657
F0.37422462139607593
sI12658
F0.0067355421622927614
sI12663
F0.5236024384420906
sI12665
F1.0
sI12668
F1.0
sI12669
F0.7494084484740683
sI12670
F0.7355428430770853
sI12674
F1.0
sI12678
F1.0
sI12681
F0.3426744278823453
sI12682
F0.2475203689339448
sI12684
F0.022905535205521903
sI12686
F1.0
sI12688
F1.0
sI12691
F1.0
sI12693
F0.7116198002672453
sI12694
F1.0
sI12700
F1.0
sI12702
F1.0
sI12712
F1.0
sI12717
F0.8441318830301886
sI12719
F0.8970086285233827
sI12722
F0.6075479537143089
sI12723
F1.0
sI12724
F1.0
sI12728
F1.0
sI12732
F1.0
sI12735
F1.0
sI12736
F1.0
sI12738
F1.0
sI12740
F1.0
sI12746
F1.0
sI12750
F1.0
sI12761
F1.0
sI12762
F1.0
sI12767
F1.0
sI12769
F1.0
sI12771
F0.8268168518539818
sI12772
F1.0
sI12774
F0.2784145118643408
sI12776
F1.5608742751580148e-96
sI12780
F1.0
sI12787
F1.0
sI12792
F1.0
sI12793
F1.0
sI12799
F0.5523648150054241
sI12801
F0.8038551672963974
sI12802
F0.7435625773400458
sI12808
F1.0
sI12810
F1.0
sI12820
F3.384606560206107e-84
sI12825
F0.12156913749993076
sI12826
F3.9545348380468697e-47
sI12828
F0.6014165616251906
sI12830
F1.0
sI12832
F7.167183174969036e-70
sI12834
F1.0
sI12839
F1.0
sI12844
F3.0061345059505334e-74
sI12846
F7.339195571168293e-72
sI12856
F1.0
sI12865
F1.0
sI12883
F1.0
sI12889
F1.0
sI12891
F0.5945822232763658
sI12892
F1.0
sI12907
F1.0
sI12909
F0.9209926090416138
sI12910
F1.0
sI12915
F0.6360983345939543
sI12916
F1.0
sI12918
F0.9618042089573886
sI12920
F0.02771853525905403
sI12922
F1.0
sI12928
F1.0
sI12963
F0.5478838862037194
sI12964
F1.0
sI12969
F0.98871045148091
sI12970
F1.0
sI12972
F0.7422375135972943
sI12974
F0.011854900090430949
sI12987
F0.9937268295945084
sI12988
F1.0
sI12990
F0.38717040885395104
sI12992
F0.04926445596902697
sI12996
F0.3783180038688318
sI12998
F0.005264732861384171
sI13001
F0.0003276800000000002
sI13002
F1.0
sI13003
F1.0
sI13008
F1.0
sI13009
F1.0
sI13026
F1.0
sI13027
F1.0
sI13072
F1.0
sI13078
F1.0
sI13080
F1.0
sI13081
F1.0
sI13123
F0.6178617704550852
sI13125
F0.46316268608914585
sI13126
F0.18460184013539543
sI13131
F0.6498650796206513
sI13132
F0.6822486725673121
sI13134
F0.5370361414924636
sI13136
F0.43838146922675886
sI13138
F0.6397950453816723
sI13144
F0.1337101378198169
sI13149
F0.6804520964932647
sI13150
F0.5892210558628569
sI13152
F0.4849930198906417
sI13154
F0.4114364849432466
sI13156
F0.8039538316240846
sI13158
F0.36908546586160806
sI13160
F0.7566781691968465
sI13163
F0.07554271066496362
sI13164
F0.31727128139252725
sI13165
F0.28129548285441947
sI13168
F0.886860090458585
sI13170
F0.6386710877628394
sI13171
F0.16910415087146935
sI13180
F0.4139891316752149
sI13186
F0.9117446693542833
sI13188
F0.9829541778972346
sI13189
F1.0
sI13203
F0.7723889852908368
sI13204
F0.4667098544260866
sI13206
F0.4180833488551321
sI13208
F0.7467514792635671
sI13210
F0.6872850816420966
sI13212
F0.5774216209270581
sI13214
F0.9950695896821298
sI13217
F0.7409954381174297
sI13218
F0.4083178471277777
sI13219
F0.208252128578715
sI13222
F0.5166778316221128
sI13224
F0.6034025434039831
sI13225
F0.09896801244010217
sI13230
F0.40334612456260927
sI13232
F0.946272360980168
sI13235
F0.8282758163570507
sI13236
F0.9763625873337564
sI13237
F0.8671822041834791
sI13241
F0.979894813003415
sI13245
F0.7732420811831152
sI13247
F1.0
sI13248
F0.9722603972648214
sI13249
F0.5474659400830537
sI13251
F0.7471185828122437
sI13253
F0.38524298100402266
sI13255
F0.9476212159043833
sI13258
F0.4864835820575761
sI13260
F0.5783103485890713
sI13261
F0.6913071856662363
sI13266
F0.7886646766904808
sI13267
F0.9077582706215974
sI13269
F0.8388813386042654
sI13271
F0.9998749779172478
sI13273
F0.2965617782384513
sI13279
F0.6912858687411129
sI13288
F0.8704406273469798
sI13294
F0.6118962369468446
sI13296
F0.8618614389924485
sI13297
F1.0
sI13312
F0.7532557089232487
sI13314
F0.054454879048125945
sI13315
F0.5401241669604208
sI13320
F0.5968784141456773
sI13321
F0.7154617957968762
sI13323
F0.7806383361085695
sI13325
F5.288447750322041e-83
sI13327
F0.7490773969326665
sI13333
F0.13608149186007298
sI13365
F0.7278506143980924
sI13366
F0.6284856694040747
sI13368
F0.6416328699322004
sI13370
F0.5051740231021153
sI13372
F0.6016483725704831
sI13374
F0.43841336297901
sI13376
F0.591371955681484
sI13379
F0.006958509811535575
sI13380
F0.3225154036151607
sI13381
F0.03661903599529825
sI13384
F0.6728464690824375
sI13386
F0.8290864217431421
sI13387
F0.5741825249138122
sI13392
F0.8094840899262041
sI13394
F0.9786793564560434
sI13397
F0.3181574413814291
sI13398
F0.8648091243979293
sI13399
F0.45789731817004564
sI13403
F0.47930421199575984
sI13407
F0.066999844646349
sI13409
F0.790637648207247
sI13410
F0.945814809474344
sI13411
F0.4670266225737839
sI13413
F0.9407901897056231
sI13415
F0.9837585949273113
sI13417
F1.0
sI13420
F0.43747100883029416
sI13422
F0.5225763817690414
sI13423
F0.26494261176843814
sI13428
F0.49628030090048986
sI13429
F0.7881245082162941
sI13431
F0.5644493559752959
sI13433
F0.21414429486756803
sI13435
F0.40000529660505985
sI13441
F0.23410173051311717
sI13446
F0.8540381809251849
sI13448
F0.8673925641456258
sI13451
F0.8682568468741184
sI13452
F0.7533016532701828
sI13453
F0.8861629849420126
sI13457
F0.6862569725322999
sI13461
F0.40226975138429805
sI13463
F1.0
sI13464
F0.8637789842928874
sI13465
F0.6121560828170667
sI13467
F0.4693309863490043
sI13469
F1.0
sI13471
F0.6515692490491345
sI13475
F1.0
sI13479
F1.0
sI13490
F1.0
sI13491
F1.0
sI13496
F1.0
sI13498
F1.0
sI13500
F0.5484151522531391
sI13501
F0.6983708030125708
sI13503
F0.5465028749295084
sI13505
F0.409239744336511
sI13507
F0.30854789028969015
sI13509
F0.6943989566059505
sI13511
F0.6878149592006213
sI13514
F0.0155526870428515
sI13515
F0.5875730425560165
sI13516
F0.2828651377127097
sI13519
F0.7632369392008251
sI13521
F0.6606244073520158
sI13522
F0.2685782500221156
sI13528
F0.6101989097263129
sI13530
F0.5255010615647118
sI13531
F0.8175886367936809
sI13536
F0.1248867810598747
sI13537
F0.13892016281317413
sI13539
F0.6061488951536745
sI13541
F1.9701003098197426e-77
sI13543
F0.028780409432440496
sI13549
F0.7655318510268736
sI13554
F0.6103371448586581
sI13555
F0.0889918435224647
sI13557
F0.07547176184974871
sI13559
F1.5914343565113296e-59
sI13561
F0.7160543524041386
sI13563
F0.0009933276621568185
sI13565
F7.695704335233368e-76
sI13569
F0.03380174377335938
sI13570
F0.04483147775757493
sI13573
F0.7370676723163944
sI13575
F0.40846089195862645
sI13576
F0.30381724775749785
sI13585
F0.9865791754119321
sI13591
F0.6362990003848399
sI13593
F0.6440094486222964
sI13594
F1.0
sI13612
F0.2748784774798849
sI13618
F0.7459284285919656
sI13620
F0.9857006031844022
sI13621
F1.0
sI13636
F0.6737276259531643
sI13638
F0.08584882088691477
sI13639
F0.0231045050201451
sI13644
F0.6884148624270767
sI13645
F0.870155473575933
sI13647
F0.7439980940978131
sI13649
F0.8454314860073086
sI13651
F0.8331076598878839
sI13657
F2.607406049708163e-62
sI13690
F0.3366827641884442
sI13692
F0.9192873621158377
sI13693
F0.020314047842529798
sI13698
F0.8673679913627501
sI13699
F0.9842318166581348
sI13701
F0.9977628591346949
sI13703
F1.0
sI13705
F0.425629310093829
sI13711
F1.5608742751580148e-96
sI13716
F0.272399306265282
sI13717
F0.04590539139083262
sI13719
F0.04137586149659299
sI13721
F0.9840417507365135
sI13723
F0.8061716406324866
sI13725
F0.6109231030486193
sI13727
F1.0
sI13730
F1.0
sI13731
F0.8663268978496333
sI13732
F0.9440879281682313
sI13735
F1.124728448635815e-107
sI13737
F9.989595361011296e-98
sI13747
F0.9120503224536745
sI13753
F1.0
sI13755
F1.0
sI13756
F1.0
sI13801
F0.9139526380258413
sI13807
F1.0
sI13809
F0.6267886289685931
sI13810
F1.0
sI13851
F0.7574443967152567
sI13852
F0.8546829300140235
sI13854
F0.46580144905858756
sI13856
F0.5247317348741967
sI13858
F0.9644649931363477
sI13860
F0.5341210251116582
sI13862
F0.7162286546241254
sI13865
F0.69755040707439
sI13866
F0.5128825085482833
sI13867
F0.664582676404307
sI13870
F0.8670274292808383
sI13872
F0.52395068483303
sI13873
F0.04178419515855157
sI13878
F0.5223230185513947
sI13880
F0.6447997755275626
sI13883
F0.5663783312207775
sI13884
F0.8109254418963154
sI13885
F1.0
sI13889
F0.24501741432631763
sI13893
F0.8644372992284967
sI13895
F0.5463682669490474
sI13896
F0.5541827426194318
sI13897
F1.0
sI13899
F0.5598841408426734
sI13901
F0.0562043058782334
sI13906
F0.7353384493444709
sI13908
F0.7617840186610247
sI13909
F0.3546206198749017
sI13914
F0.7864340390100522
sI13915
F0.8304392502972362
sI13917
F0.9715116237679716
sI13919
F0.9692801932919515
sI13921
F0.7895385844704121
sI13927
F0.06550081798637379
sI13932
F0.6932326682690955
sI13934
F0.7899932192897412
sI13937
F0.9996028734124928
sI13938
F0.95282085205211
sI13939
F0.8928576611777838
sI13943
F1.0
sI13947
F1.0
sI13950
F0.5762162200009664
sI13951
F0.12315205251997888
sI13953
F0.49016924399041595
sI13955
F0.8991479141184902
sI13957
F0.8377634511663542
sI13961
F0.6751260450344081
sI13965
F0.9418861749582568
sI13967
F0.9742230079644154
sI13976
F1.0
sI13977
F0.3478250230739204
sI13979
F0.884447781793401
sI13982
F0.09743958329451952
sI13983
F0.9999018109988618
sI13984
F1.0
sI13986
F0.8252864592238572
sI13987
F0.27778386969785923
sI13989
F0.7946834953405154
sI13991
F1.0
sI13993
F0.1467076982798123
sI13995
F1.0
sI14000
F1.0
sI14002
F1.0
sI14005
F0.031238279820563764
sI14007
F0.36228193726955954
sI14008
F0.02576040411902166
sI14014
F0.9145867218167646
sI14016
F0.6683984325059682
sI14017
F0.8147559440936318
sI14022
F0.6522106416033716
sI14023
F0.7182710321986555
sI14025
F0.2408439418009662
sI14027
F2.1153791001288166e-83
sI14029
F0.6395567235332393
sI14035
F0.6309122039198658
sI14040
F0.37665955051261846
sI14041
F1.0
sI14043
F0.1262847516084412
sI14045
F4.809815209520854e-75
sI14049
F0.08685074700616405
sI14051
F7.695704335233368e-76
sI14055
F0.15026348914549267
sI14056
F1.0
sI14061
F0.8347272398577881
sI14062
F1.0
sI14071
F0.6747830679235709
sI14077
F0.3698323304488682
sI14079
F0.8963376472504818
sI14080
F1.0
sI14094
F0.5652635595126206
sI14096
F0.4144837879471105
sI14099
F0.5822908238608415
sI14100
F0.4198305162198447
sI14101
F0.41949239022401713
sI14105
F0.10472144157129878
sI14109
F0.35628199390432336
sI14111
F0.5467465578531454
sI14112
F0.5362055865525808
sI14113
F0.251714540499212
sI14115
F0.5834609969886041
sI14117
F0.7206082503831881
sI14119
F0.6063958489222436
sI14123
F0.21859371080239104
sI14127
F0.3639878663987548
sI14129
F0.27217978545454025
sI14138
F0.6192291372808215
sI14139
F0.988995153041205
sI14141
F0.9452627576881693
sI14144
F0.3768828885650196
sI14145
F0.9633840204284467
sI14146
F1.0
sI14148
F0.5835231131178606
sI14149
F0.24998701543454213
sI14151
F0.6204751734845119
sI14153
F0.4094279197481939
sI14155
F0.16448410853580472
sI14157
F0.7170268335706448
sI14159
F0.7623710206726251
sI14162
F0.6384043267670487
sI14163
F0.5557755302519765
sI14164
F0.4054944152028005
sI14167
F0.046056618355082644
sI14169
F0.12100975751258713
sI14170
F0.09105631486338467
sI14177
F0.9853780604770468
sI14181
F0.7756450178929885
sI14183
F0.3872720759260637
sI14192
F1.0
sI14193
F0.4445688221301624
sI14195
F0.9761134981852867
sI14198
F1.0
sI14199
F0.3711624266676361
sI14200
F0.7494106184827287
sI14210
F1.0
sI14222
F1.0
sI14226
F1.0
sI14229
F0.6911011213335115
sI14231
F1.0
sI14234
F1.0
sI14235
F0.9751709679687822
sI14236
F0.010182716993340042
sI14240
F1.0
sI14244
F1.0
sI14247
F0.3168706023850854
sI14248
F0.04509295816735627
sI14250
F0.6365945465563188
sI14252
F1.0
sI14254
F7.100670152666788e-05
sI14256
F0.41944065262194924
sI14257
F0.5673282862265419
sI14259
F0.3564634726113903
sI14261
F6.999202319305696e-68
sI14263
F0.6799548397228199
sI14265
F0.0016166273914315003
sI14267
F2.2713710134237964e-89
sI14271
F0.009668982709627573
sI14272
F0.012166092011109911
sI14275
F0.8868781418230219
sI14277
F0.7812589947842463
sI14278
F0.7618611416896464
sI14283
F0.7836551369723475
sI14285
F3.2278123476086668e-80
sI14289
F0.2633294997001844
sI14290
F1.0
sI14298
F9.10099974106117e-46
sI14300
F6.835158514946968e-66
sI14301
F0.9827667907549112
sI14302
F1.0
sI14304
F0.8413920626368898
sI14306
F9.303535670983873e-92
sI14311
F0.5819129853076498
sI14313
F0.2438941341194945
sI14314
F0.06295961078796387
sI14319
F0.35148490482271255
sI14320
F0.8689670592142067
sI14322
F0.7508066407354244
sI14324
F5.415370496329772e-85
sI14326
F0.03164240930051973
sI14332
F0.12874665250194658
sI14338
F0.7403483671831174
sI14340
F0.3240445982409041
sI14341
F0.2291720126035876
sI14346
F0.8069280975709813
sI14347
F0.70883499514047
sI14349
F0.9662991670531826
sI14351
F0.9836617274659618
sI14353
F1.0
sI14359
F2.734063405978787e-66
sI14364
F0.8917472226087109
sI14365
F1.0
sI14367
F0.31178806094455713
sI14369
F0.7468299262804989
sI14373
F0.7258252053281871
sI14375
F0.5594175678675697
sI14378
F0.2849495619519152
sI14379
F1.0
sI14380
F1.0
sI14385
F6.835158514946968e-66
sI14395
F0.1400698375955216
sI14401
F0.9999779261403321
sI14403
F0.9727096014542792
sI14404
F1.0
sI14418
F0.9183148142785845
sI14419
F0.650397602349654
sI14421
F0.09417640027364699
sI14423
F0.8538184997894436
sI14425
F0.9992123896741824
sI14427
F1.0
sI14432
F1.0
sI14434
F1.0
sI14437
F1.5608742751580148e-96
sI14439
F8.872543021186704e-88
sI14445
F0.38397951007611353
sI14447
F0.48907387981690187
sI14450
F0.15636416633016045
sI14451
F0.9998876205513609
sI14452
F1.0
sI14456
F1.0
sI14460
F1.0
sI14463
F3.902185687895036e-96
sI14468
F1.7573882009934605e-106
sI14473
F0.7393785478883044
sI14475
F0.9974019885222678
sI14476
F0.05638693180001436
sI14482
F1.0
sI14484
F1.0
sI14494
F3.4658371176510554e-86
sI14503
F0.759935206833456
sI14509
F0.9702986349968181
sI14511
F0.9257850832218015
sI14512
F1.0
sI14529
F0.7187373064088225
sI14530
F1.0
sI14535
F0.9732736432136094
sI14536
F1.0
sI14538
F0.38984973488510055
sI14540
F3.305279843951275e-82
sI14584
F0.7525527647331385
sI14590
F0.9118188474398503
sI14592
F0.9187089624021616
sI14593
F1.0
sI14608
F0.27375631683311974
sI14610
F0.6562546397929034
sI14611
F0.5271083143304582
sI14616
F0.14687916984520016
sI14617
F0.05663306782460521
sI14619
F0.19524186003881033
sI14621
F0.10521100030141622
sI14623
F0.07904515878293299
sI14629
F8.831305876785086e-40
sI14662
F0.6776539924806666
sI14664
F0.9030123747899428
sI14665
F0.003748827682162328
sI14670
F0.8302478545814571
sI14671
F0.25768759937928204
sI14673
F0.9555391102986065
sI14675
F0.9995711134257323
sI14677
F0.06192367321733212
sI14683
F0.9601898705822043
sI14688
F0.4076024935176719
sI14689
F0.09959096725404082
sI14691
F0.7861370284533655
sI14693
F0.9999350007314922
sI14695
F0.9881259328998409
sI14697
F0.39580829811693585
sI14699
F0.4233640392085556
sI14702
F0.041998037791273965
sI14703
F0.773399819901954
sI14704
F0.07817121265409858
sI14707
F0.6172467715838722
sI14709
F0.7594452133279144
sI14710
F4.44803780591551e-49
sI14719
F0.7470823416151506
sI14725
F0.6590613836471956
sI14727
F0.9036027470077355
sI14728
F1.0
sI14773
F0.9424943997194363
sI14779
F0.0403401444272263
sI14781
F0.11292458245891304
sI14782
F1.0
sI14824
F0.45448002977516255
sI14826
F0.41699509323038086
sI14827
F0.45738666487438945
sI14832
F0.296957912400485
sI14833
F0.06433550487119209
sI14835
F0.32764684503740343
sI14837
F4.626326899811513e-33
sI14839
F0.015090519071039147
sI14845
F0.25037062813369654
sI14850
F0.07849136621552906
sI14851
F0.13930478169971838
sI14853
F0.19994277754439554
sI14855
F0.38340366592798586
sI14857
F0.7479789525995182
sI14859
F0.004741783287882214
sI14861
F0.2377058301398809
sI14864
F3.845938021267245e-42
sI14865
F0.3514393166158197
sI14866
F0.003126849939203885
sI14869
F0.6448412491392724
sI14871
F0.3779402251048325
sI14872
F4.361585904808538e-43
sI14881
F0.9958636077622515
sI14887
F0.5125547808338347
sI14889
F0.6420097708620364
sI14890
F1.0
sI14904
F0.773269912227197
sI14905
F0.44490978032990985
sI14907
F0.2289826323862813
sI14909
F0.9011367184294036
sI14911
F0.7108630922870711
sI14913
F0.28820825808356243
sI14915
F0.5304799343763309
sI14918
F2.0657655176954938e-51
sI14919
F0.8497048780565122
sI14920
F0.0023847091309894676
sI14923
F0.9999975812768305
sI14925
F0.9997638481446228
sI14926
F0.9996064580729616
sI14931
F1.0
sI14936
F1.0
sI14938
F1.0
sI14942
F1.0
sI14946
F1.0
sI14950
F1.0
sI14952
F1.0
sI14959
F0.24951204029898252
sI14961
F0.15367277139855115
sI14962
F0.007593907076079279
sI14967
F0.005162074576561081
sI14968
F0.00914036291209355
sI14970
F5.243871802339542e-38
sI14972
F6.674959487252897e-64
sI14974
F0.017822681235048522
sI14980
F1.0
sI14989
F0.9434988087231748
sI14995
F0.31136070012301087
sI14997
F0.14291968930637175
sI14998
F1.0
sI15013
F0.03447586226227614
sI15015
F5.809354771517601e-39
sI15016
F4.463896567001935e-52
sI15021
F0.003377332770985785
sI15022
F0.007122062636690072
sI15024
F6.459520540697611e-51
sI15026
F4.271974071841854e-65
sI15028
F0.141525928775238
sI15034
F2.7996809277222788e-68
sI15097
F0.8783523183864563
sI15103
F0.8505629951154593
sI15105
F0.9339028330244319
sI15106
F1.0
sI15151
F0.9990145581878392
sI15157
F0.2502486097222018
sI15159
F0.6006444670902559
sI15160
F1.0
sI15175
F0.038996220772514925
sI15177
F0.6799659929828782
sI15178
F1.0104221531451369e-40
sI15183
F0.6701513729859165
sI15184
F0.016281615287528674
sI15186
F0.8973582873622462
sI15188
F1.0
sI15190
F0.02332583437789308
sI15196
F4.271974071841854e-65
sI15309
F0.6835393477959714
sI15310
F0.6608953597926301
sI15312
F0.5663215565022588
sI15314
F0.7528766259033173
sI15316
F0.43097531083503726
sI15318
F0.25771150398167486
sI15320
F0.1091314099886855
sI15323
F0.3882938207382062
sI15324
F0.4434888557267409
sI15325
F0.3958378441002286
sI15328
F0.46274469799846235
sI15330
F0.3106544700210941
sI15331
F0.12392145147910744
sI15336
F0.3729369528301292
sI15338
F0.4149266514246084
sI15341
F0.03139226098237487
sI15342
F0.4271341902439596
sI15343
F0.26741643058816555
sI15347
F0.3604470401346841
sI15351
F0.4523010903097076
sI15353
F0.7029055659100489
sI15354
F0.35868680235185424
sI15355
F0.5473114767481281
sI15357
F0.2252467486879523
sI15359
F0.8607280887939801
sI15361
F0.41122218910201813
sI15364
F0.7642419185454123
sI15366
F0.6775232742548117
sI15367
F0.48106019485962265
sI15372
F0.615404079401438
sI15373
F0.7962910085466057
sI15375
F0.6302161032492032
sI15377
F0.8210292641485275
sI15379
F0.3058163667237253
sI15385
F0.18036472015643507
sI15390
F0.8030964413407706
sI15392
F0.9988939493992726
sI15395
F1.0
sI15396
F0.8287651139320039
sI15397
F0.3142287496171376
sI15401
F0.9877382387592425
sI15405
F0.4706858602264893
sI15407
F1.0
sI15408
F0.8117603305822086
sI15409
F0.7534122660077015
sI15411
F1.0
sI15415
F0.04142479183960592
sI15419
F0.8236877706965323
sI15423
F0.936829537260665
sI15425
F0.8988307251930734
sI15434
F1.0
sI15435
F0.153514770397253
sI15437
F0.9039997005787319
sI15440
F1.0
sI15441
F0.9923844011653277
sI15442
F0.007194652152521585
sI15444
F0.8397998705285145
sI15445
F0.7836169806447268
sI15447
F1.0
sI15451
F0.6883421031017772
sI15453
F0.8517398492387328
sI15455
F0.9989392086951127
sI15458
F1.0
sI15459
F0.43497353127065785
sI15460
F0.6281176610613545
sI15463
F0.4098833304954397
sI15466
F1.0
sI15472
F0.5193679622235243
sI15474
F0.4107084657352249
sI15475
F0.8031190442843277
sI15480
F0.33213399505348773
sI15481
F0.49764533621188983
sI15483
F0.21838678063298123
sI15485
F1.878834066219083e-73
sI15487
F0.6485133759683357
sI15493
F0.019818834863966173
sI15498
F0.2955425382105692
sI15499
F0.4544397388555637
sI15501
F0.006426752984611112
sI15503
F6.365737426045318e-60
sI15505
F0.5364360827162589
sI15507
F0.16038425599350192
sI15509
F7.167183174969036e-70
sI15513
F0.4614264926338832
sI15514
F0.3872126277068517
sI15517
F0.4356703138973328
sI15519
F5.120346740007362e-42
sI15520
F1.478301555505764e-50
sI15529
F0.2367481301318804
sI15535
F0.734775375887688
sI15537
F0.6205284803756367
sI15538
F1.0
sI15552
F0.33909192225614027
sI15554
F0.28158578605102585
sI15557
F0.7033237643810346
sI15558
F0.3275523228944687
sI15559
F0.4250355932138229
sI15563
F0.10934563825294039
sI15567
F0.39015661008522023
sI15569
F0.09472905123510664
sI15570
F0.416687987561389
sI15571
F0.6202859222875875
sI15573
F0.171502541882049
sI15575
F0.7851626648711103
sI15577
F0.9922130541232237
sI15581
F0.45909995645741825
sI15585
F0.6027059990474501
sI15587
F0.5854777294534446
sI15596
F0.38978767989572016
sI15597
F0.5770679236458865
sI15599
F0.960258567013135
sI15602
F0.7023060604584965
sI15603
F0.5769675328749868
sI15604
F1.0
sI15606
F0.42931633830328225
sI15607
F0.6136918392221046
sI15609
F0.36372153490133396
sI15611
F0.9677397411402289
sI15613
F0.044073588896926814
sI15615
F0.4577747697570072
sI15617
F0.39874307679326504
sI15620
F1.5910858381445602e-31
sI15621
F0.47548115285669446
sI15622
F0.04980107401595039
sI15625
F0.35511218582673765
sI15627
F0.8378433727661845
sI15628
F0.08344477846466794
sI15635
F0.8871200247543765
sI15639
F0.5644340862840402
sI15641
F0.2996200568538177
sI15650
F1.0
sI15651
F0.8433207971986699
sI15653
F0.9999256111819168
sI15656
F1.0
sI15657
F0.67776322528352
sI15658
F0.6285554313564347
sI15668
F1.0
sI15680
F1.0
sI15684
F1.0
sI15687
F0.2425616415922479
sI15689
F0.827026113894292
sI15692
F1.0
sI15693
F0.050229854778181274
sI15694
F0.0436005500620817
sI15698
F0.1119992941629043
sI15702
F0.6658872553187942
sI15704
F1.0
sI15705
F0.8220043531761649
sI15706
F0.39279905580971053
sI15708
F1.0
sI15712
F0.00025117214433028614
sI15714
F0.35867589458437243
sI15715
F0.3212950424635907
sI15717
F0.03245877334672277
sI15719
F4.1718496795330606e-63
sI15721
F0.4203072911630772
sI15723
F0.22100914402923638
sI15725
F1.791795793742259e-69
sI15729
F0.060780206205184796
sI15730
F0.06230720827467785
sI15733
F0.2536928413000498
sI15735
F0.03732170417454222
sI15736
F0.041741375945280976
sI15741
F0.16660060928766293
sI15743
F9.713344461128715e-57
sI15747
F0.6691532186791264
sI15748
F0.0714837548799681
sI15756
F0.04082975482296493
sI15758
F6.835158514946968e-66
sI15759
F0.33926677010327366
sI15760
F0.6388857265995276
sI15762
F5.643066789005937e-43
sI15764
F2.7996809277222788e-68
sI15766
F1.0
sI15769
F0.6661225595395115
sI15771
F0.178422793173225
sI15772
F0.9519337956577133
sI15777
F0.2448051375178877
sI15778
F0.8508142021223172
sI15780
F0.7033613342479863
sI15782
F4.1718496795330606e-63
sI15784
F0.03161830551611288
sI15790
F0.024712118762920975
sI15796
F0.4703497422409601
sI15798
F0.33274922290694664
sI15799
F0.3538606265131504
sI15804
F0.6857757248407195
sI15805
F0.633744115152128
sI15807
F0.9572627367237362
sI15809
F0.6248308743822706
sI15811
F0.697812922184964
sI15817
F1.6296287810676014e-61
sI15822
F0.46655232945467673
sI15823
F0.6486152841642282
sI15825
F0.20650813087145697
sI15827
F0.934789277416893
sI15829
F0.7250073473227555
sI15831
F0.8314815320530992
sI15833
F0.39384004568027725
sI15836
F0.9581546237622682
sI15837
F0.6682140824028583
sI15838
F0.6467388826282652
sI15841
F6.365737426045318e-60
sI15843
F6.2165404551223794e-58
sI15853
F0.3998319787086062
sI15859
F0.9945586736804761
sI15861
F0.7490871080059738
sI15862
F1.0
sI15876
F0.5392081674916208
sI15877
F0.632089785162905
sI15879
F1.0
sI15883
F0.29000446960071385
sI15885
F0.7352828252844545
sI15887
F1.0
sI15890
F1.0
sI15891
F0.2633332686504086
sI15892
F0.025821738147079668
sI15895
F5.678427533559491e-89
sI15903
F0.2183259003313961
sI15905
F0.5446057811393427
sI15908
F1.0
sI15909
F0.4989218949627429
sI15910
F0.006472338153284815
sI15914
F1.0
sI15918
F0.18902159138960167
sI15920
F1.0
sI15921
F3.384606560206107e-84
sI15928
F5.415370496329772e-85
sI15931
F0.8080210691920926
sI15934
F1.0
sI15939
F1.0
sI15940
F1.0
sI15942
F1.0
sI15946
F1.0
sI15961
F0.9544334766361284
sI15967
F0.7607347659843634
sI15969
F0.666472760064764
sI15970
F1.0
sI15985
F0.9976969912265872
sI15987
F0.2512023740482444
sI15988
F0.2808740987099746
sI15993
F0.8471706627794439
sI15994
F1.0
sI15996
F0.1354712813862908
sI15998
F7.339195571168293e-72
sI16000
F1.0
sI16006
F4.6970851655477075e-73
sI16038
F0.4630217610430686
sI16040
F0.44158777525213977
sI16043
F0.5261651016990097
sI16044
F0.6593821393196179
sI16045
F0.8653470727013259
sI16049
F0.019453950731623565
sI16053
F0.7216143203051247
sI16055
F0.8035503324123522
sI16056
F0.14409089088487642
sI16057
F0.0036685970567447383
sI16059
F0.6417053086823538
sI16061
F0.36047581664457806
sI16063
F0.771496197368071
sI16067
F0.19776115756667928
sI16071
F0.7049193982211819
sI16073
F0.21506425393589682
sI16082
F0.7114584060921503
sI16083
F0.0853951508956581
sI16085
F7.3428703767488406e-40
sI16088
F8.47007209012515e-48
sI16089
F0.5716381876462746
sI16090
F1.0
sI16092
F0.4194681560362583
sI16093
F0.5723224146843868
sI16095
F0.16422426763696588
sI16097
F0.1888905784764025
sI16099
F0.9335064872763312
sI16101
F0.6473583918120822
sI16103
F0.719338488697819
sI16106
F0.6180529168303267
sI16107
F0.5867044594973695
sI16108
F0.8494206491466945
sI16111
F0.05319388457846044
sI16113
F0.9125748188921701
sI16114
F0.0018658109454203317
sI16121
F0.9729425043680909
sI16125
F0.7859099251043785
sI16127
F0.39642880470773745
sI16136
F1.0
sI16137
F0.22736698830744195
sI16139
F0.37040374761409656
sI16142
F1.0
sI16143
F0.0034583581049917184
sI16144
F0.006495915424562253
sI16154
F0.6964685552624129
sI16166
F2.478011005113933e-53
sI16170
F1.1694926314165202e-44
sI16172
F5.0434567931385415e-79
sI16173
F0.9129966921646191
sI16175
F1.0
sI16178
F1.0
sI16179
F0.9899639708658103
sI16180
F0.9999993168501263
sI16184
F1.0
sI16188
F1.0
sI16191
F0.8491663080517914
sI16192
F0.026075265910096776
sI16194
F1.0
sI16198
F0.025960859046901853
sI16200
F0.4323680543879746
sI16201
F0.6578338283196722
sI16203
F0.007594925639718418
sI16205
F2.7996809277222788e-68
sI16207
F0.9984461110286615
sI16209
F0.4235540218756531
sI16211
F8.069530869021667e-80
sI16215
F0.6592941427706911
sI16216
F0.9536274241446682
sI16219
F0.7620888955596232
sI16221
F0.011757340646661125
sI16222
F0.002612676862866224
sI16227
F0.33877704209599196
sI16229
F3.4658371176510554e-86
sI16233
F0.8997503055661468
sI16234
F1.0
sI16242
F0.003009975023269624
sI16244
F1.524291284333998e-94
sI16245
F0.9762286301875789
sI16246
F1.0
sI16248
F1.3303677553424793e-43
sI16250
F1.749800579826424e-67
sI16255
F0.05272679816196528
sI16257
F0.022067461325436417
sI16258
F0.016848066227088603
sI16263
F0.0045837001177201275
sI16264
F0.00035693581842399975
sI16266
F3.303493806268059e-36
sI16268
F6.999202319305696e-68
sI16270
F0.16879304758109645
sI16276
F0.056105645842517676
sI16283
F0.18737191056152108
sI16287
F0.14183416944870184
sI16289
F0.6160411919906009
sI16298
F0.01674034692273336
sI16299
F0.11766040215971582
sI16301
F0.062035914761560285
sI16304
F0.9365905286357395
sI16305
F0.21215743531081122
sI16306
F0.6665210688580224
sI16316
F5.601055730118696e-32
sI16328
F2.5427900570243517e-41
sI16332
F0.29516213302969857
sI16334
F2.156795733372064e-46
sI16335
F0.2732426469957915
sI16337
F0.7117566818690523
sI16340
F0.35431401245207417
sI16341
F0.27304705193796075
sI16342
F0.06954927181517667
sI16346
F0.25008191422280895
sI16350
F0.4825208340331787
sI16352
F1.0
sI16353
F0.6079750725979558
sI16354
F0.015152336553722796
sI16356
F0.8851147351660802
sI16358
F1.0
sI16360
F0.03977889503760687
sI16370
F0.018865429676700508
sI16382
F0.0966200164379713
sI16386
F0.0023257964697720192
sI16388
F1.5983352577618077e-98
sI16418
F1.0
sI16422
F0.25244895374761395
sI16424
F1.0
sI16433
F1.0
sI16434
F0.3738956316324654
sI16436
F1.0
sI16439
F1.0
sI16440
F0.003638188136485976
sI16441
F3.435973836800004e-08
sI16443
F0.24164102010378916
sI16445
F1.1467493079950457e-70
sI16449
F0.19807882614083433
sI16450
F0.3321004546723074
sI16458
F0.0015738961944574167
sI16460
F3.549017208474682e-88
sI16461
F0.5496503994169619
sI16462
F0.9581339906381137
sI16464
F0.019653188807244776
sI16466
F1.4196068833898728e-88
sI16468
F1.0
sI16476
F0.13485654223218493
sI16478
F1.1198723710889116e-68
sI16488
F0.717602894274422
sI16490
F1.32211193758051e-82
sI16494
F1.0
sI16495
F1.0
sI16497
F0.023551188561090397
sI16498
F0.06456827082551
sI16500
F0.008950015039182538
sI16502
F2.0173827172554165e-79
sI16504
F0.09979122527542464
sI16506
F0.013384612871407197
sI16508
F1.3863348470604223e-86
sI16512
F0.10780674914180356
sI16513
F0.03200000000000001
sI16516
F0.05240088237671911
sI16518
F0.013200335365936261
sI16519
F0.0003276800000000002
sI16524
F0.2362813958569422
sI16525
F0.41185598888051805
sI16527
F0.012776341234751073
sI16529
F0.12100361653791261
sI16531
F0.8930304272024842
sI16533
F0.4625160054574526
sI16535
F0.9753546948655618
sI16538
F0.39261113844237583
sI16539
F1.0
sI16540
F1.0
sI16543
F7.339195571168293e-72
sI16545
F2.2615642429163465e-50
sI16551
F0.1398604210582316
sI16553
F0.4513890129616206
sI16556
F8.612370836228714e-36
sI16557
F0.9981597506838092
sI16558
F1.0
sI16562
F0.10517737235920674
sI16566
F1.0
sI16568
F1.0
sI16569
F1.6296287810676014e-61
sI16574
F9.94646472819581e-59
sI16579
F0.24737885290852363
sI16581
F0.04457809976027165
sI16582
F1.658149497482804e-35
sI16587
F0.4368438741199219
sI16588
F0.9911640015404225
sI16590
F0.04722776164150992
sI16592
F1.0
sI16594
F1.0
sI16600
F3.794275180128404e-55
sI16605
F0.3763692351827824
sI16607
F0.992068082761616
sI16610
F1.0
sI16611
F0.49091524036911593
sI16612
F0.9922183990187351
sI16616
F1.0
sI16620
F1.0
sI16623
F8.664592794127637e-86
sI16630
F1.0474849945267791e-101
sI16634
F0.24716321839125727
sI16638
F0.1569517094860777
sI16640
F1.0
sI16649
F1.0
sI16652
F5.95426282942968e-93
sI16656
F7.695704335233368e-76
sI16659
F0.9940988056787099
sI16660
F0.8400648253947582
sI16662
F1.0
sI16666
F1.0
sI16668
F1.0
sI16673
F1.0
sI16675
F1.0
sI16678
F6.243497100632059e-97
sI16687
F0.7337631449356798
sI16689
F3.8403006787213555e-47
sI16690
F6.360096209729548e-51
sI16695
F0.11036474057280887
sI16696
F0.0961965453354108
sI16698
F2.1603744864803008e-47
sI16700
F6.999202319305696e-68
sI16702
F1.0
sI16708
F5.288447750322041e-83
sI16713
F0.3409797137858391
sI16714
F1.0
sI16716
F3.250912832469061e-47
sI16718
F1.0679935179604635e-64
sI16722
F0.06239695840105475
sI16724
F9.085484053695185e-90
sI16728
F1.0
sI16729
F1.0
sI16734
F3.305279843951275e-82
sI16744
F8.069530869021667e-80
sI16750
F1.6366953039480918e-100
sI16752
F6.999202319305696e-68
sI16768
F0.7409740734395642
sI16770
F0.5855917839277173
sI16771
F0.850199542572657
sI16776
F0.5948941084341284
sI16777
F0.8994819161980097
sI16779
F0.8803231077714327
sI16781
F0.0532832259105112
sI16783
F0.0733110915297921
sI16789
F0.5292935762729841
sI16794
F0.49839215597750575
sI16795
F0.27260235303494906
sI16797
F0.5427131707179721
sI16799
F0.8171466607570983
sI16801
F0.18944929529964166
sI16803
F0.5344943938906532
sI16805
F0.8456176369312718
sI16808
F0.11889107010399191
sI16809
F0.8044139057219072
sI16810
F0.12290866350947895
sI16813
F0.1077807154181768
sI16815
F0.6554139604986782
sI16816
F1.267817722915065e-41
sI16825
F1.0
sI16831
F0.8113648524188499
sI16833
F0.9142778407286831
sI16834
F1.0
sI16848
F0.8740458175381056
sI16849
F0.9161191637517635
sI16851
F1.0
sI16855
F0.15129433543614856
sI16857
F0.6790477795610592
sI16859
F0.9997487665458261
sI16862
F1.0
sI16863
F0.11433101975477913
sI16864
F0.020276791899016825
sI16867
F0.9993262056993019
sI16870
F1.0
sI16875
F0.48006615092855276
sI16877
F1.0
sI16880
F1.0
sI16881
F0.8144668385314742
sI16882
F0.7417139629646439
sI16886
F1.0
sI16890
F0.163184443681465
sI16892
F1.0
sI16893
F0.9985869870257238
sI16894
F0.6576046709185845
sI16896
F1.0
sI16900
F1.0
sI16903
F0.9245825670668072
sI16906
F1.0
sI16911
F0.7301260541032979
sI16912
F0.2149838591400916
sI16914
F1.0
sI16918
F0.03780201103304317
sI16933
F0.9635300055914278
sI16939
F0.32980213544681797
sI16941
F0.7402742760523483
sI16942
F1.0
sI16957
F0.07617090022674912
sI16959
F0.15466758898010818
sI16960
F0.2641547628278402
sI16965
F0.44539474279946145
sI16966
F0.07276396490926529
sI16968
F0.06016348537682084
sI16970
F5.81470979436492e-91
sI16972
F0.043594988156137424
sI16978
F1.2024538023802136e-74
sI17010
F0.40233879486096424
sI17011
F0.33410743769700585
sI17013
F0.498459940207866
sI17015
F0.9002337675473283
sI17017
F0.17170603619657215
sI17019
F0.3478517513880449
sI17021
F0.2673447703769462
sI17024
F2.783505714468424e-40
sI17025
F0.06418064861229883
sI17026
F0.035243382324735034
sI17029
F0.9722305682537579
sI17031
F0.4301836862110531
sI17032
F0.8477451947806827
sI17037
F0.18969158072129214
sI17039
F0.3827970222820435
sI17042
F0.13686956185177798
sI17043
F0.8314028741160233
sI17044
F0.07906552308877703
sI17048
F0.28199799201517434
sI17052
F0.3140069240485285
sI17054
F1.0
sI17055
F0.6635600941154842
sI17056
F0.023116933983723602
sI17058
F9.30527312372511e-05
sI17060
F1.0
sI17062
F1.0
sI17065
F0.3865760304687126
sI17067
F0.9765694834796143
sI17068
F1.0
sI17073
F0.4273965885283117
sI17074
F0.14899162043322012
sI17076
F0.02166156446922833
sI17078
F6.070840288205446e-56
sI17080
F0.025931470536520475
sI17086
F1.0
sI17091
F0.763288476008169
sI17093
F0.9267772784867069
sI17096
F1.0
sI17097
F0.6661046305540256
sI17098
F0.09037497953403173
sI17102
F0.8477086063239939
sI17106
F0.18602106492419784
sI17108
F1.0
sI17109
F1.0
sI17110
F1.0
sI17112
F1.0
sI17116
F1.0
sI17120
F1.0
sI17124
F1.0
sI17135
F1.0
sI17136
F1.0
sI17141
F1.0
sI17143
F1.0
sI17145
F0.8586085827929681
sI17146
F0.16831864230482604
sI17148
F1.0
sI17152
F0.11670921698169698
sI17154
F0.033850398608425834
sI17156
F5.678427533559491e-89
sI17160
F0.13081191898304145
sI17161
F0.005120000000000001
sI17164
F1.0
sI17167
F1.0
sI17173
F0.11428429520157263
sI17175
F0.5107910621970482
sI17176
F0.7057522741771416
sI17181
F0.6071464505151444
sI17182
F0.7490348271074827
sI17184
F0.7526410299556661
sI17186
F1.3863348470604223e-86
sI17188
F0.15150273762508049
sI17194
F2.166148198531909e-85
sI17199
F0.023519844347519178
sI17200
F0.009377562840268479
sI17202
F8.752845180150957e-49
sI17204
F1.749800579826424e-67
sI17206
F0.07594966309151874
sI17208
F0.08035453837274185
sI17210
F1.4885657073574198e-92
sI17214
F0.0977744411612108
sI17215
F0.2
sI17218
F1.2608641982846354e-78
sI17220
F7.339195571168293e-72
sI17230
F1.0
sI17236
F1.0
sI17238
F1.0
sI17239
F1.0
sI17257
F0.9681652413229065
sI17263
F0.8063087324134339
sI17265
F1.0
sI17266
F1.0
sI17281
F0.5270797235100528
sI17283
F0.9611480087912947
sI17284
F0.7050972566036039
sI17289
F0.33096882008429396
sI17290
F0.7610266205908838
sI17292
F1.0
sI17294
F1.0
sI17296
F0.12094540238282601
sI17302
F7.167183174969036e-70
sI17335
F0.8548407024846087
sI17338
F1.0
sI17343
F0.15857333242006164
sI17344
F0.14771630066045774
sI17346
F1.0
sI17350
F0.020021970565210552
sI17361
F0.5917525884799125
sI17362
F0.03773654388498106
sI17364
F1.0
sI17368
F0.009263300922750047
sI17370
F0.9536409680781031
sI17372
F1.0
sI17375
F1.0
sI17376
F0.055715977799317855
sI17377
F0.03200000000000001
sI17380
F1.716199415032676e-104
sI17398
F1.0
sI17401
F1.0
sI17446
F1.0
sI17452
F1.0
sI17454
F1.0
sI17455
F1.0
sI17500
F0.9934467342606935
sI17506
F0.9167800756315581
sI17508
F0.9116559479415929
sI17509
F1.0
sI17524
F0.836409748426889
sI17526
F0.4203693578490907
sI17527
F0.07041608471732233
sI17532
F0.6422331625104497
sI17533
F0.048401949369624456
sI17535
F0.4763344355690242
sI17537
F0.2722172776135531
sI17539
F0.7008380068873238
sI17545
F0.7380881736016107
sI17578
F0.35521618061998295
sI17580
F0.43422106252554205
sI17581
F0.08117051130225955
sI17586
F0.9453834982101406
sI17587
F0.03249809445361249
sI17589
F0.5455503611270888
sI17591
F0.5713394643882821
sI17593
F0.1461980086531689
sI17599
F0.007688586884907613
sI17604
F0.9229817134935171
sI17605
F0.13895871734741191
sI17607
F0.8864425464959466
sI17609
F0.9922602328828571
sI17611
F0.9417067062980891
sI17613
F0.8727147033072858
sI17615
F0.9956894058376959
sI17618
F0.2882091677181357
sI17619
F0.9500309661360186
sI17620
F0.059968545792836225
sI17623
F0.98463993567786
sI17625
F0.8092164102648705
sI17626
F2.9040008651350613e-40
sI17635
F0.2821029309604781
sI17641
F0.9405431759355706
sI17643
F0.9939591876458618
sI17644
F1.0
sI17689
F0.37456582907354097
sI17695
F0.15843651785228785
sI17697
F0.9442697108528456
sI17698
F1.0
sI17740
F0.36192633174059496
sI17742
F0.671146016870344
sI17743
F0.1385618944827288
sI17748
F0.5945189429429518
sI17749
F0.6929089933755785
sI17751
F0.7565014495468404
sI17753
F0.6645214199918703
sI17755
F0.813696417070912
sI17761
F0.25017468356845685
sI17766
F0.5459374842759566
sI17767
F0.09223983914820763
sI17769
F0.4977437149227165
sI17771
F0.8787230884843658
sI17773
F0.2655981140608667
sI17775
F0.04710607164722802
sI17777
F0.046320437515751246
sI17780
F1.063086424764718e-36
sI17781
F0.3835899694328735
sI17782
F3.573342664734193e-29
sI17785
F0.9715933424596275
sI17787
F0.4334102892109798
sI17788
F0.05677249093351025
sI17797
F0.1981581827954235
sI17803
F0.9364420064740312
sI17805
F0.9853626128941252
sI17806
F1.0
sI17820
F0.8646306317404912
sI17821
F0.6137331971837353
sI17823
F0.011364208047431285
sI17825
F0.7009339756407513
sI17827
F0.9999998958436961
sI17829
F0.47817155600963523
sI17831
F0.7608151800647847
sI17834
F0.0385582461370705
sI17835
F0.23822970950125683
sI17836
F0.04454815270588422
sI17839
F0.3938223280455223
sI17841
F0.3969745711781425
sI17842
F0.00228214594799886
sI17847
F1.0
sI17852
F1.0
sI17854
F1.0
sI17858
F1.0
sI17862
F1.0
sI17866
F1.0
sI17868
F1.0
sI17875
F0.5131491041342029
sI17877
F0.2916799055088196
sI17878
F0.012132223790379343
sI17883
F0.8206015898144209
sI17884
F0.9035076115465862
sI17886
F0.0030492325266494253
sI17888
F1.0
sI17890
F1.0
sI17896
F0.00458544708945514
sI17905
F0.9998180846756665
sI17911
F0.9809219837983071
sI17913
F0.7184180687456038
sI17914
F1.0
sI17929
F0.9245847722065818
sI17931
F0.09471052527372784
sI17932
F0.021515678431226988
sI17937
F3.1339809159795727e-43
sI17938
F5.856067998421634e-49
sI17940
F1.209143733718246e-49
sI17942
F9.94646472819581e-59
sI17944
F1.5541351137805946e-57
sI17950
F1.0
sI18013
F0.8584627900996413
sI18019
F0.9975634645580879
sI18021
F0.9608493301812957
sI18022
F1.0
sI18067
F0.0571301249848367
sI18073
F0.9627196668088059
sI18075
F0.8182331457603751
sI18076
F1.0
sI18091
F0.36490514335925617
sI18093
F0.05807128865943281
sI18094
F8.750799101821606e-42
sI18099
F0.5668660171479463
sI18100
F0.015365997927236065
sI18102
F0.27956639417227624
sI18104
F1.0
sI18106
F1.0
sI18112
F1.5541351137805946e-57
sI18226
F0.8780560813680285
sI18228
F0.40818062531286126
sI18229
F0.3791689048334569
sI18234
F0.6999041788242983
sI18235
F0.9385761533065089
sI18237
F0.5315587489766673
sI18239
F0.40399792042583393
sI18241
F0.8046162272403512
sI18247
F0.6830815136434861
sI18252
F0.8962128525696136
sI18253
F1.0
sI18255
F0.3679623246707483
sI18257
F0.7676038510065504
sI18261
F0.6122291992137862
sI18263
F0.4671924070397394
sI18266
F0.27848848504874296
sI18267
F0.8104902696496885
sI18268
F1.0
sI18273
F0.312204437966511
sI18274
F1.0
sI18283
F0.6922067767603935
sI18289
F1.0
sI18291
F1.0
sI18292
F1.0
sI18306
F0.9728387290761381
sI18307
F0.8283569401286777
sI18309
F0.5726598943768725
sI18311
F1.0
sI18313
F1.0
sI18315
F1.0
sI18320
F1.0
sI18322
F1.0
sI18325
F0.8905093919618867
sI18327
F0.7746474969997822
sI18328
F0.008231957321593103
sI18333
F0.9559495511138892
sI18335
F1.0
sI18338
F1.0
sI18339
F1.0
sI18340
F1.0
sI18344
F1.0
sI18348
F1.0
sI18351
F0.9025022636599646
sI18352
F1.0
sI18354
F0.14096646899948648
sI18356
F1.0
sI18361
F0.7755508427189268
sI18363
F0.9719597760524417
sI18364
F0.06049225688910718
sI18370
F1.0
sI18372
F1.0
sI18382
F0.02337887324162382
sI18391
F1.0
sI18397
F0.9739448545214295
sI18399
F0.37106915494397813
sI18400
F1.0
sI18417
F0.2783972994305568
sI18418
F1.0
sI18423
F0.5063606062200213
sI18424
F1.0
sI18426
F0.24040732537033016
sI18428
F3.810728210834995e-94
sI18468
F0.6076417418866887
sI18469
F0.7454164089383352
sI18471
F0.7163675918410665
sI18473
F0.663503502501784
sI18475
F0.7543178939109242
sI18477
F0.5244415007639969
sI18479
F0.3181938215548632
sI18482
F0.8412284314251407
sI18483
F0.5588012481206412
sI18484
F0.8415376746838048
sI18487
F0.33315139884465855
sI18489
F0.6936542142196618
sI18490
F0.0635299200474376
sI18495
F0.3125225103130801
sI18497
F0.5022750219371006
sI18500
F0.9001343167983455
sI18501
F0.9988118129403605
sI18502
F1.0
sI18506
F0.6154590525378338
sI18510
F0.6960254245901099
sI18512
F1.0
sI18513
F1.0
sI18514
F1.0
sI18516
F1.0
sI18518
F1.0
sI18523
F0.8254850266484361
sI18525
F0.8343672446830411
sI18526
F0.09376596233952272
sI18531
F1.0
sI18532
F1.0
sI18534
F1.0
sI18536
F1.0
sI18538
F1.0
sI18544
F0.01144474554712598
sI18549
F0.8637508709284742
sI18551
F1.0
sI18554
F1.0
sI18555
F1.0
sI18556
F1.0
sI18560
F1.0
sI18564
F1.0
sI18567
F0.6139241878147568
sI18568
F0.8462627025919024
sI18570
F0.2161199947257147
sI18572
F1.0
sI18574
F1.0
sI18578
F1.0
sI18582
F1.0
sI18593
F1.0
sI18594
F1.0
sI18599
F1.0
sI18601
F1.0
sI18603
F0.794028436151377
sI18604
F0.386397756620095
sI18606
F0.8989701751353407
sI18608
F1.0
sI18610
F1.0
sI18612
F1.0
sI18617
F1.0
sI18619
F1.0
sI18622
F0.057898250049578784
sI18624
F0.03128580297646233
sI18625
F8.388608000000007e-06
sI18631
F0.8177793551992887
sI18633
F0.5615952770827881
sI18634
F1.0
sI18639
F0.26314291746425567
sI18640
F0.8490202573462627
sI18642
F0.280869400287363
sI18644
F5.1644997561738665e-81
sI18646
F1.5983352577618077e-98
sI18652
F1.0
sI18657
F0.11068609906135879
sI18658
F1.0
sI18660
F0.25781838859819495
sI18662
F3.4658371176510554e-86
sI18666
F7.198699150547993e-49
sI18668
F4.586997231980183e-71
sI18672
F8.069530869021667e-80
sI18678
F1.0
sI18679
F1.0
sI18688
F1.0
sI18694
F1.0
sI18696
F1.0
sI18697
F1.0
sI18715
F0.90379931844549
sI18721
F1.0
sI18723
F1.0
sI18724
F1.0
sI18741
F0.976513496317013
sI18742
F1.0
sI18747
F1.0
sI18748
F1.0
sI18750
F1.0
sI18752
F1.0
sI18793
F0.41894139161412547
sI18795
F0.7473550336408321
sI18796
F0.0035039603436928905
sI18802
F1.0
sI18804
F1.0
sI18814
F9.303535670983873e-92
sI18819
F0.9984586571961352
sI18820
F1.0
sI18822
F0.06341226825929427
sI18824
F1.0
sI18828
F1.0
sI18833
F1.0
sI18835
F1.0
sI18840
F5.415370496329772e-85
sI18850
F1.0
sI18859
F1.0
sI18912
F1.0
sI18913
F1.0
sI18985
F2.5462949704181275e-60
sI18991
F1.0936253623915149e-66
sI18993
F1.5914343565113296e-59
sI19039
F3.4658371176510554e-86
sI19045
F3.384606560206107e-84
sI19047
F9.526820527087488e-94
sI19063
F3.6341936214780746e-90
sI19065
F2.935678228467317e-72
sI19071
F8.872543021186704e-88
sI19076
F6.243497100632059e-97
sI19078
F1.0229345649675571e-99
sI19084
F3.384606560206107e-84
sI19201
F1.0185179881672509e-60
sI19207
F4.586997231980183e-71
sI19209
F9.94646472819581e-59
sI19225
F1.5177100720513615e-55
sI19227
F2.3714219875802523e-54
sI19233
F2.734063405978787e-66
sI19238
F4.809815209520854e-75
sI19240
F9.713344461128715e-57
sI19246
F1.0679935179604635e-64
sI19279
F5.678427533559491e-89
sI19281
F1.2911249390434666e-80
sI19287
F5.1644997561738665e-81
sI19292
F2.4388660549343975e-95
sI19294
F1.4885657073574198e-92
sI19300
F1.5608742751580148e-96
sI19336
F8.069530869021667e-80
sI19342
F2.6815615859885555e-103
sI19344
F1.9701003098197426e-77
sI19390
F8.664592794127637e-86
sI19396
F9.085484053695185e-90
sI19398
F1.3863348470604223e-86
sI19552
F4.925250774549356e-77
sI19558
F4.717453031026995e-112
sI19560
F2.7459190640522815e-105
s.