(dp0
I0
F0.23810597725351004
sI1
F0.2848909817649203
sI3
F0.48567807402631
sI5
F0.47263262441403947
sI7
F0.27641951754402494
sI9
F0.2785048251477794
sI11
F0.6280305076351089
sI14
F0.43922169582471476
sI15
F0.2912501198946267
sI16
F0.0851542964345369
sI19
F0.2614267980211054
sI21
F0.40130375589410133
sI22
F0.2479058382433427
sI27
F0.5101225803089148
sI29
F0.49091688863360305
sI32
F0.33445510187568317
sI33
F0.31260139616675203
sI34
F0.1816850782185892
sI38
F0.5683288129776835
sI42
F0.2663798881255384
sI44
F0.05945897353089876
sI45
F0.32571269981714623
sI46
F0.507743812067629
sI48
F0.420483630418501
sI50
F0.2637909713503964
sI52
F0.45736773335170966
sI55
F0.1506446263580256
sI57
F0.2979053454132174
sI58
F0.3150208679728182
sI63
F0.3050192909588804
sI64
F0.38509313161084824
sI66
F0.42711633630880397
sI68
F0.4686465780524536
sI70
F0.09207524421582254
sI76
F0.23476121386096305
sI81
F0.2294722296175721
sI83
F0.17819481992266287
sI86
F0.7347927598866004
sI87
F0.14029935965299256
sI88
F0.01048889220717833
sI92
F0.4924823533663246
sI96
F0.3581688648025868
sI98
F0.006630637228465448
sI99
F0.1622031727873546
sI100
F0.2961565405870066
sI102
F0.22829054163204612
sI104
F0.007828097829010444
sI106
F0.008218384965240301
sI110
F0.3213136249595134
sI114
F0.32486721448629374
sI116
F0.06332949863169093
sI125
F4.978224167910731e-30
sI126
F0.5141312475069807
sI128
F0.33308792474792387
sI131
F0.5096568082581471
sI132
F0.7213144165716776
sI133
F0.009564976779130267
sI135
F0.1517715251331769
sI136
F0.12537231985672262
sI138
F0.505120928342608
sI140
F0.9200111570629139
sI142
F4.3937722451242297e-35
sI144
F0.12981399525611295
sI146
F0.41049401292829185
sI149
F0.6564998848333858
sI150
F0.14679767198257013
sI151
F3.177724950149915e-36
sI154
F0.00017092834047562376
sI156
F0.03114441689085057
sI157
F0.03275388757812865
sI163
F0.32926180423838525
sI165
F0.4520274848792084
sI166
F0.6156871780465522
sI171
F0.3387339929662439
sI172
F0.2711693099786825
sI174
F0.5927910507711126
sI176
F0.758153926508909
sI178
F0.2709796135900738
sI184
F0.8077371191824182
sI189
F0.3721291654552082
sI190
F0.35894656632261573
sI192
F0.8586577690959274
sI194
F0.6842733203014535
sI196
F0.11418257377372407
sI198
F0.32467462109053535
sI200
F0.6321666944706424
sI203
F0.8541647797504199
sI204
F0.26235900261993944
sI205
F0.4892102799630963
sI208
F0.2469023607442174
sI210
F0.34009439982181466
sI211
F0.6375238265590923
sI220
F0.43923586751243343
sI226
F0.2722456506846771
sI228
F0.5051620660037425
sI229
F2.6300679507742363e-140
sI243
F0.2672499325092478
sI245
F0.21180776892770736
sI248
F0.5602886815454441
sI249
F0.23073578600500472
sI250
F0.4907839157591027
sI254
F0.5601266974726932
sI258
F0.2175984278721862
sI260
F0.03232790507313953
sI261
F0.16470045759600263
sI262
F0.11307747713006394
sI264
F0.3789237143950293
sI266
F0.22317807671915163
sI268
F0.09735733430475516
sI272
F0.47675778013333103
sI276
F0.5286173047427806
sI278
F0.10557562598287781
sI287
F0.07326958819551224
sI288
F0.45705713976033746
sI290
F0.3476530061972988
sI293
F0.7304269189147271
sI294
F0.28389005134736167
sI295
F0.2746209327110246
sI297
F0.2693059230037538
sI298
F0.09920416610827948
sI300
F0.2176570941961144
sI302
F0.38521807850179096
sI304
F0.2313559784258818
sI306
F0.5561248727856845
sI308
F0.04516390541491237
sI311
F0.9235954274562178
sI312
F0.30891223506620585
sI313
F0.031554030463877024
sI316
F0.08623921437201537
sI318
F0.11401807640945469
sI319
F0.033225116599477134
sI326
F0.17685599512791023
sI330
F0.09144676838678975
sI332
F0.5238501064242924
sI341
F0.020295083432840005
sI342
F0.03183986537079365
sI344
F0.020045042884384634
sI347
F0.021700474394011314
sI348
F0.05475211155719756
sI349
F2.6925906803661013e-31
sI359
F1.940647615375925e-153
sI371
F7.762590461503701e-154
sI375
F1.605266083236228e-137
sI378
F0.20443264999573152
sI380
F0.13287976170115579
sI383
F0.9999385893741671
sI384
F0.20790229079390635
sI385
F1.0890751328309449e-35
sI389
F0.6188426495082745
sI393
F0.028904709878690215
sI395
F0.023466615041760723
sI396
F0.004542337068852937
sI397
F3.2222801420296167e-41
sI399
F0.007121837207095484
sI401
F6.0152204842686775e-05
sI403
F9.263712010647144e-41
sI405
F0.37783324459863127
sI406
F0.5719386620838898
sI408
F0.4421073529231006
sI410
F0.44314670781543103
sI412
F0.7728429518849226
sI414
F0.3715926648724416
sI416
F0.22310996927133886
sI419
F0.9050166621360454
sI420
F0.30320900517011257
sI421
F0.4559317105793485
sI424
F0.5182510510199313
sI426
F0.36703324724166747
sI427
F0.8980364616516145
sI432
F0.42641773822653306
sI434
F0.7092867883841614
sI437
F0.8941092118396403
sI438
F0.8980102837842896
sI439
F0.8756275815096877
sI443
F0.24907209924221635
sI447
F0.3906848841508339
sI449
F0.6000551069718305
sI450
F0.36560010081823324
sI451
F0.5413962733334633
sI453
F0.9495915131180832
sI455
F0.9228725639482439
sI457
F0.7507670590001851
sI460
F0.10155733870493688
sI462
F0.35905572627352245
sI463
F0.5651636699235025
sI468
F0.2770425382892072
sI469
F0.02588835831213758
sI471
F0.13488341660975434
sI473
F0.702610820209856
sI475
F0.30075731961543917
sI481
F0.24599202780272544
sI487
F0.2762002312146754
sI489
F0.3801109795836738
sI490
F0.5296474561422052
sI495
F0.2515377858127493
sI496
F0.3080589440879392
sI498
F0.3225101562212379
sI500
F0.22007704030787972
sI502
F0.07433799097828497
sI508
F0.36540543200989584
sI513
F0.5688488201529902
sI514
F0.7469824118208783
sI516
F0.49944367441786297
sI518
F0.3050037474965549
sI520
F0.10471015570841449
sI522
F0.20333104974191915
sI524
F0.41768529353642775
sI527
F0.08393257871700893
sI528
F0.0798010479181648
sI529
F0.36159201211314745
sI532
F0.8786359976040009
sI534
F0.574810348711745
sI535
F0.47983786995535904
sI544
F0.10668342560979269
sI550
F0.057392868080102535
sI552
F0.21719071242094723
sI553
F6.3933410310472306e-99
sI567
F0.18288269013093528
sI568
F0.30489909752778965
sI570
F0.071521727295628
sI572
F0.008430723617734134
sI574
F0.0166858718304384
sI576
F0.010292252837163505
sI578
F0.07016595043651257
sI581
F0.14046157622028216
sI582
F1.3490578932115136e-33
sI583
F2.9881578859933386e-40
sI586
F0.24844248651380374
sI588
F0.17287994760986897
sI589
F0.9479271955501845
sI594
F0.36458795117334863
sI596
F0.1273255449324244
sI599
F0.019451792735424762
sI600
F0.4027436245943145
sI601
F0.006767258821281822
sI605
F4.527019977244254e-37
sI609
F1.6986154415972465e-32
sI611
F1.4867451724186676e-38
sI612
F0.5269568277281871
sI613
F0.9781750617121355
sI615
F0.4007223171071745
sI617
F0.646607077668673
sI619
F0.01215522501336392
sI622
F0.013240043782840737
sI624
F0.010129462859293337
sI625
F0.13291959926191219
sI630
F0.014986393269464656
sI631
F2.8040221498357722e-31
sI633
F0.016980525876259086
sI635
F0.011138228091174051
sI637
F1.404214067766638e-40
sI643
F0.07279469363323587
sI652
F0.2709741683837385
sI658
F0.4566838527870083
sI660
F0.0908190373427808
sI661
F1.027370293271186e-138
sI676
F0.05095509059892685
sI678
F0.17696320466813042
sI679
F0.34503805234476237
sI684
F0.12706172609324817
sI685
F0.08074205950055552
sI687
F0.42878883428620157
sI689
F0.6151333027909518
sI691
F0.07101683687715087
sI697
F0.6714468071943307
sI729
F0.19187833298396578
sI731
F0.24377055422195418
sI734
F0.4838495764681035
sI735
F0.3643181847340531
sI736
F0.06485975208914899
sI740
F0.26803332813121905
sI744
F0.6312577869998837
sI746
F0.01076533504451841
sI747
F0.15038644298680515
sI748
F0.26347390032184187
sI750
F0.29033843401786164
sI752
F0.30641489756489493
sI754
F0.012163156437731092
sI758
F0.6042030591645757
sI762
F0.27609349292040153
sI764
F0.4400214994158953
sI773
F0.39734292692312784
sI774
F0.2619639462597029
sI776
F0.6684607419384214
sI779
F0.6673351872928392
sI780
F0.13678345202456801
sI781
F4.189939978107117e-102
sI783
F0.12081488076965245
sI784
F0.5429876861431767
sI786
F0.26097121736232415
sI788
F0.22312345895751304
sI790
F0.0334509654722298
sI792
F0.42223319828156625
sI794
F0.015447331577766867
sI797
F0.5790984093424123
sI798
F0.09715376802930152
sI799
F0.24476567775139035
sI802
F0.10631548706333188
sI804
F0.21798762775697444
sI805
F0.75371812032617
sI812
F0.3277606293080867
sI816
F0.47508156462530604
sI818
F0.03811729241694832
sI827
F1.2420144738405923e-154
sI828
F0.32135356556115
sI830
F0.3604423067611948
sI833
F0.11613758617871824
sI834
F0.6539102286474949
sI835
F0.04397734603519625
sI845
F0.5194937677713769
sI857
F0.2875907050645625
sI861
F0.9649273210821249
sI863
F1.0
sI864
F0.04506496501707688
sI866
F0.219979192935448
sI869
F8.942169207826495e-37
sI870
F0.016041853686668425
sI871
F1.2745573547494024e-39
sI875
F2.4494416553287157e-134
sI879
F3.091630018413853e-115
sI882
F0.12115500144344195
sI883
F0.17577162462421658
sI885
F0.03626201502185077
sI887
F4.813546986503534e-37
sI889
F5.479698724782745e-39
sI891
F0.36120659711753267
sI892
F0.34619539918382825
sI894
F0.4147352923063057
sI896
F0.5284875312848952
sI898
F0.007719175245487911
sI900
F0.46364799853581323
sI902
F0.48986111037027147
sI905
F0.9622037767673276
sI906
F0.41010851387834046
sI907
F0.12838011917686137
sI910
F0.03410318717217945
sI912
F0.19958319294510807
sI913
F0.17276068518768395
sI918
F0.5457660270796119
sI920
F0.6610247915417786
sI923
F0.3792184962778523
sI924
F0.012391427457508205
sI925
F2.6300679507742363e-140
sI929
F0.7805227766748881
sI933
F0.880463344514887
sI935
F0.6951918637943845
sI936
F0.17713527397015394
sI937
F2.6300679507742363e-140
sI939
F0.028891711251895824
sI941
F0.2232143747892707
sI946
F0.47439845887926924
sI948
F0.5165807561837273
sI949
F0.45840620697797224
sI954
F0.36495507918584735
sI955
F0.9410995567422348
sI957
F0.4588532969514709
sI959
F0.756785691002479
sI961
F0.9731820953781718
sI967
F0.5618681599762909
sI974
F0.1636585425464809
sI978
F0.5157240272428708
sI980
F0.511553624204829
sI989
F0.34995834322609876
sI990
F0.05630124599920676
sI992
F0.04570745177649451
sI995
F0.011661073760734025
sI996
F0.48699843148785316
sI997
F0.0028972241638448165
sI1007
F0.8074669806615808
sI1019
F0.6644939467411045
sI1023
F0.9595992850278856
sI1025
F1.0
sI1026
F0.2552957170693201
sI1028
F0.18024938987798622
sI1031
F0.07867434069523424
sI1032
F0.3427553091432672
sI1033
F0.16630524898661164
sI1037
F0.18081850952572226
sI1041
F0.49565681725592947
sI1043
F8.277385185260538e-32
sI1044
F0.08302111901164203
sI1045
F4.739082107317656e-28
sI1047
F1.8268623655585833e-26
sI1049
F6.869481100989564e-28
sI1051
F3.5070009448200236e-28
sI1061
F0.39486735139161755
sI1073
F0.17432673280918892
sI1077
F0.9818331949946747
sI1079
F1.0
sI1109
F0.14605536591344281
sI1113
F0.022248950865374366
sI1115
F0.0235308918804737
sI1124
F1.316403645856972e-43
sI1125
F0.1809083257525939
sI1127
F0.5694495807473109
sI1130
F6.333095403522506e-60
sI1131
F0.0193334607670744
sI1132
F8.92039279421251e-52
sI1134
F0.45548709064939064
sI1136
F0.5107297388109396
sI1139
F0.9859430227781815
sI1140
F0.6279392790950946
sI1141
F0.6678957649821045
sI1145
F0.6012088245450664
sI1149
F0.3553398695935327
sI1151
F0.1194888714600936
sI1152
F0.05844797491460149
sI1153
F0.005092115714861963
sI1155
F0.04955456827751545
sI1157
F0.6409960177371032
sI1159
F0.0003780162388972012
sI1163
F0.992461247178016
sI1167
F0.902522001953362
sI1169
F1.0
sI1178
F1.0
sI1179
F0.13223044363704162
sI1181
F0.4062599003950862
sI1184
F0.9604553687482926
sI1185
F0.1500200607129194
sI1186
F2.5462949704181275e-60
sI1188
F0.24035445133572414
sI1189
F0.3104961831046423
sI1191
F0.016715372247570384
sI1193
F0.005787738668815889
sI1195
F0.3233116994675232
sI1197
F0.3550291786209322
sI1199
F0.0599435521276936
sI1202
F0.09649616401536576
sI1203
F0.29485758258112527
sI1204
F0.38456701899853085
sI1207
F8.031905413262277e-34
sI1209
F8.090066039924931e-30
sI1210
F2.7490417027286e-48
sI1215
F0.37435149755489494
sI1216
F0.29349204763412706
sI1218
F0.32276596869438995
sI1220
F0.48486830513242674
sI1222
F0.019405931810255447
sI1224
F0.24934934606105513
sI1226
F0.2399322981995426
sI1229
F0.3430082198934774
sI1230
F0.0323323010740206
sI1231
F0.22841246938656418
sI1234
F0.573435635444007
sI1236
F0.14457895682036317
sI1237
F0.30923290349878046
sI1242
F0.49838556731256334
sI1244
F0.2942468209327198
sI1247
F0.49728489445864166
sI1248
F0.18716670010402464
sI1249
F2.381705131771872e-93
sI1253
F0.5380879599494097
sI1257
F0.009360902723288109
sI1259
F1.92462418366461e-22
sI1260
F0.2541058652745468
sI1261
F3.241809038188326e-119
sI1263
F0.643629854307041
sI1265
F0.24164954332243832
sI1270
F0.7711342983075952
sI1272
F0.2513953200267726
sI1273
F0.7801806669948992
sI1278
F0.17267267514100287
sI1279
F0.13008491110973122
sI1281
F0.0779457412059636
sI1283
F0.16553842664971016
sI1285
F0.3629946308847424
sI1291
F0.8589001304710098
sI1296
F0.10154893144688759
sI1298
F2.781377552701368e-05
sI1301
F0.006706241246463544
sI1302
F0.00805221142054357
sI1303
F0.017155065024240412
sI1307
F8.702164874310056e-125
sI1311
F6.3933410310472306e-99
sI1314
F0.05215281319660753
sI1315
F0.8956636531768254
sI1317
F0.19425900833087814
sI1319
F0.08609060301923596
sI1321
F0.010197709780952358
sI1325
F0.11239087036544337
sI1329
F0.4464166023112297
sI1331
F0.6020527366288531
sI1340
F8.627182933488258e-47
sI1341
F0.7811162173916927
sI1343
F0.15615116942074325
sI1346
F0.9550326891708776
sI1347
F0.3599394732462965
sI1348
F8.834235323891978e-49
sI1350
F0.06966989550767227
sI1351
F0.28799773434181064
sI1353
F0.24448494393607847
sI1355
F1.2226460217861552e-36
sI1357
F1.0925355776656692e-38
sI1359
F4.6068877256122985e-110
sI1364
F5.0216813883093696e-40
sI1366
F1.316403645856972e-43
sI1369
F0.4352864970748191
sI1371
F0.4044360242458289
sI1372
F0.6633763863952709
sI1378
F0.07470213595240359
sI1380
F0.23958859390562354
sI1381
F0.9591417061277694
sI1386
F0.31829815347431567
sI1387
F0.6733233006690793
sI1389
F0.20429490307284054
sI1391
F0.957646043528806
sI1393
F0.61544656002474
sI1399
F0.34219962214846006
sI1404
F0.13040813642023372
sI1405
F8.104522595470815e-119
sI1407
F0.2084610836823073
sI1409
F0.5875287336767938
sI1413
F0.1251820343638364
sI1415
F0.7956377803736765
sI1418
F0.9520134712339695
sI1419
F2.6386744621438894e-06
sI1420
F1.668739871813224e-63
sI1425
F0.19141001131323476
sI1426
F1.0185179881672509e-60
sI1435
F1.0
sI1441
F1.0
sI1443
F1.0
sI1459
F0.3300040717064485
sI1461
F0.3112244428013617
sI1462
F0.46110740532669436
sI1467
F0.3134958190302238
sI1468
F0.1934157407512188
sI1470
F0.20680211390913703
sI1472
F0.9203905850669645
sI1474
F0.0807678068950187
sI1480
F0.13872314201499833
sI1485
F0.3441112037224399
sI1486
F0.28612421859596476
sI1488
F0.5564928524140598
sI1490
F0.22652457509427898
sI1492
F0.2548806554288371
sI1494
F0.3723337069144834
sI1496
F0.5934606468668627
sI1499
F0.38271605801383307
sI1500
F0.11107042028142962
sI1501
F0.272882172483301
sI1504
F0.17148569915673376
sI1506
F0.6587962369079114
sI1507
F0.8888041720112634
sI1516
F0.046607406750461364
sI1522
F0.0121156075565364
sI1524
F0.2124270964719041
sI1525
F4.393470502483651e-106
sI1539
F0.2691598625619243
sI1540
F0.14292887072658436
sI1542
F0.6267152969269134
sI1544
F0.2101713512585719
sI1546
F0.0002479580185348604
sI1548
F0.39743823918771126
sI1550
F0.6504320984561408
sI1553
F0.8820550866895023
sI1554
F0.3348333721486614
sI1555
F0.1188372822168968
sI1558
F0.025680800523650953
sI1560
F0.07202020453217448
sI1561
F0.02917522360352916
sI1566
F0.348985992439399
sI1568
F0.007708421383742099
sI1571
F0.001262693021939096
sI1572
F0.015109571623677976
sI1573
F0.071374096941371
sI1577
F0.025633974739461884
sI1581
F0.02539197258344967
sI1583
F1.7445684903327517e-40
sI1584
F0.03642000514593975
sI1585
F0.040249524334397574
sI1587
F0.38744649151376864
sI1589
F2.249057716087493e-38
sI1591
F1.5219396826092896e-33
sI1594
F0.044943812066100416
sI1596
F0.6133290869914725
sI1597
F0.2783552908437044
sI1602
F0.11453483467567274
sI1603
F0.02964390385075541
sI1605
F0.43326538377943646
sI1607
F1.0
sI1609
F1.8415236631546473e-36
sI1615
F4.874865702426282e-38
sI1624
F0.6701060017723866
sI1630
F0.17912440854056516
sI1632
F0.10334823100264307
sI1633
F4.208108721238778e-141
sI1648
F0.4202120938069252
sI1650
F0.4370543753328374
sI1651
F0.9526103823622978
sI1656
F0.14748767835136065
sI1657
F0.3182439963561867
sI1659
F0.7412860781794639
sI1661
F0.35791300337935994
sI1663
F0.049242393578929
sI1669
F1.0
sI1701
F0.3726980795186308
sI1702
F0.5276974822117664
sI1704
F0.5786154251892748
sI1706
F0.6851805391939364
sI1708
F0.15652377187279098
sI1710
F0.7146050440353502
sI1712
F0.8806366204465698
sI1715
F0.960418173646774
sI1716
F0.4628895985971019
sI1717
F0.5795120204340093
sI1720
F0.5707882295259729
sI1722
F0.47549147722649165
sI1723
F0.6763292498387133
sI1728
F0.6923092423282979
sI1730
F0.48013426867111825
sI1733
F0.7778016635287268
sI1734
F0.15445104367608137
sI1735
F0.4854200404705392
sI1739
F0.7213629606513184
sI1743
F0.23245553095555044
sI1745
F2.7099052633538513e-20
sI1746
F0.5605877103751433
sI1747
F0.6310574366207479
sI1749
F0.817230535499952
sI1751
F0.3824948921291998
sI1753
F0.6677500753497637
sI1756
F0.31029828003712423
sI1758
F0.39479167580344077
sI1759
F0.4217933646642057
sI1764
F0.2726899008522582
sI1765
F0.10255767856572415
sI1767
F0.6939691732551437
sI1769
F1.0
sI1771
F1.893526306902701e-26
sI1777
F0.5038653829430864
sI1782
F0.6538085884437033
sI1784
F0.17854650529929622
sI1787
F0.7094721748341297
sI1788
F0.0479875085592182
sI1789
F0.09087168825383117
sI1793
F0.930117659222319
sI1797
F0.5143435129778082
sI1799
F0.2371428931739254
sI1800
F0.0016894891583595314
sI1801
F0.0017797951227482216
sI1803
F0.03963770869002449
sI1805
F0.029941104298428632
sI1807
F6.454040957717061e-35
sI1811
F8.104522595470815e-119
sI1815
F2.6815615859885555e-103
sI1826
F2.008672555323748e-40
sI1827
F3.3196124551048467e-121
sI1832
F3.138550867693356e-39
sI1834
F1.1972621413014812e-35
sI1836
F0.924869053325399
sI1837
F0.3034881035468987
sI1839
F0.9671338963876704
sI1841
F1.0
sI1843
F2.955076500057609e-38
sI1845
F0.7275475480306978
sI1847
F1.0
sI1851
F0.010617546175532996
sI1852
F1.6101423519032813e-48
sI1855
F3.983888254088386e-47
sI1857
F0.18288299708519518
sI1858
F5.707379169564577e-50
sI1864
F0.3168135289043591
sI1866
F0.5249643285201275
sI1867
F0.12591861272742824
sI1872
F0.026072484300531128
sI1873
F0.4289053890878081
sI1875
F0.05520553571465779
sI1877
F0.9392460794814288
sI1879
F0.19862652165769806
sI1885
F1.0
sI1890
F0.5003420359150011
sI1891
F0.611898235932792
sI1893
F0.9887410831460232
sI1895
F0.808509939629738
sI1897
F0.6210289059377787
sI1899
F0.1907258718840455
sI1901
F0.3270235138773536
sI1904
F0.398845297130184
sI1905
F0.00887228888102748
sI1906
F0.14116240755301
sI1909
F1.0
sI1911
F1.0
sI1921
F0.7171261801480115
sI1927
F5.184917418993877e-37
sI1929
F0.06310975150767503
sI1930
F3.0649910817317916e-37
sI1948
F0.13712901378528905
sI1954
F0.0022530140549831914
sI1956
F0.024725961330003557
sI1957
F2.5573364124188926e-99
sI1972
F0.20037763049203977
sI1974
F0.3391819431682387
sI1975
F0.782286433190948
sI1980
F0.07153414004636288
sI1981
F0.022415178791306174
sI1983
F0.081198765088728
sI1985
F9.518680340577648e-32
sI1987
F3.277066686904665e-30
sI1993
F0.8862946765096184
sI2026
F0.06943405939712957
sI2028
F0.04958855473501388
sI2029
F0.04246513037371649
sI2034
F0.019781237795709845
sI2035
F0.0006472810273145473
sI2037
F0.05993708479898649
sI2039
F0.08654656769484673
sI2041
F1.1940481146014522e-43
sI2047
F0.014064070708337956
sI2052
F0.03421362183888165
sI2053
F0.28553423748463824
sI2055
F0.44826373759616395
sI2057
F1.0368001695960478e-40
sI2059
F3.1449509323519693e-32
sI2061
F0.07483704788348139
sI2063
F9.212018711199812e-38
sI2066
F5.625062593477362e-48
sI2067
F3.864413312430125e-36
sI2068
F2.4703841079583796e-46
sI2071
F0.2729891366766385
sI2073
F0.24865594078422176
sI2074
F0.8948355325373851
sI2083
F5.990623281265926e-26
sI2089
F4.338181175267429e-34
sI2091
F0.0009667144706486835
sI2092
F1.870722095783564e-34
sI2137
F0.6507314762082204
sI2143
F2.1720825193584034e-32
sI2145
F1.3028584741262501e-32
sI2146
F2.208558830972994e-48
sI2187
F0.2406723317548453
sI2189
F0.3169971835056743
sI2192
F0.5183524946644235
sI2193
F0.15477787749709204
sI2194
F0.1568929906270599
sI2198
F0.8206754410493345
sI2202
F0.12857474739374172
sI2204
F0.053460052713476244
sI2205
F0.4371909120455161
sI2206
F0.3134350724987071
sI2208
F0.7621712503455251
sI2210
F0.08994803636482168
sI2212
F0.13018314805168205
sI2216
F0.40468232735049847
sI2220
F0.5892720543943855
sI2222
F0.2942479476803732
sI2231
F0.006522429479952288
sI2232
F0.4151675044965737
sI2234
F0.4874816365585495
sI2237
F0.7589863444113775
sI2238
F0.8767489135505141
sI2239
F0.3101167527737703
sI2241
F0.2720033801889746
sI2242
F0.2603643658607656
sI2244
F0.233640575804768
sI2246
F0.12943472849432675
sI2248
F0.07834782207086369
sI2250
F0.36595292564104825
sI2252
F0.4385587182966395
sI2255
F0.9186285294539694
sI2256
F0.0804044275990351
sI2257
F0.004696285211756384
sI2260
F0.2133614995371329
sI2262
F0.2224374011358139
sI2263
F0.6934499971940997
sI2270
F0.1007135997304612
sI2274
F0.19320098901018362
sI2276
F0.14905941028120398
sI2285
F0.09104284467816606
sI2286
F0.5016899143758072
sI2288
F0.052640124530888274
sI2291
F6.57516987693559e-140
sI2292
F0.5446881216240106
sI2293
F0.2506333591927444
sI2303
F0.9002720083198642
sI2315
F0.34438286170094656
sI2319
F0.7765818156420895
sI2321
F1.0
sI2322
F0.1081553754455665
sI2324
F0.038202761384585775
sI2327
F3.827252586451117e-133
sI2328
F0.06896365780287339
sI2329
F5.231853677905497e-33
sI2333
F0.10790623109135367
sI2337
F0.04378401427578798
sI2339
F0.06948491270149763
sI2340
F0.01652515297105399
sI2341
F0.005257753108257381
sI2343
F5.98008216632987e-132
sI2347
F1.4860745880318778e-33
sI2349
F0.38878287498403113
sI2350
F0.29156475918443403
sI2352
F0.6074722073574971
sI2354
F0.7427101178879992
sI2356
F0.3529457046733392
sI2358
F0.5327545764716936
sI2360
F0.33655118472449447
sI2363
F0.5226508054210685
sI2364
F0.10379076854256014
sI2365
F0.2831099005750607
sI2368
F0.2620920189371292
sI2370
F0.9461637663621623
sI2371
F0.9606741943290267
sI2376
F0.4606811170750653
sI2378
F0.3594806352063762
sI2381
F0.9501874731914044
sI2382
F0.07522607768244527
sI2383
F0.12865157557733486
sI2387
F0.6882284218278729
sI2391
F0.12624865050033016
sI2393
F0.12754615984067538
sI2394
F0.28798736978944156
sI2395
F0.18514940678810662
sI2397
F0.9974188575232177
sI2399
F0.825567462650619
sI2401
F0.07624935630345608
sI2404
F0.8189723295261738
sI2406
F0.5798571038645182
sI2407
F0.9927336606174729
sI2412
F0.1919938091453834
sI2413
F0.8710974966988771
sI2415
F0.759674452488152
sI2417
F1.0
sI2419
F0.30471117112624274
sI2425
F0.9617385529710003
sI2432
F0.604215940363072
sI2436
F0.5266563842979765
sI2438
F0.3529653845214659
sI2447
F0.3247483664989193
sI2448
F0.5178165053382483
sI2450
F0.5017220314950636
sI2453
F0.39503941757743516
sI2454
F0.5566093193197037
sI2455
F0.019078123575853513
sI2465
F0.6058379603002274
sI2477
F0.969917945213687
sI2481
F0.8091203279047745
sI2483
F1.0
sI2484
F0.2713476894362001
sI2486
F0.35744631055750237
sI2489
F0.3811989966242258
sI2490
F0.49882250265333605
sI2491
F1.312910397610373e-27
sI2495
F0.7409370029115445
sI2499
F0.10646197507374763
sI2501
F0.16949644398250618
sI2502
F0.12159610032813473
sI2503
F0.12879644312875949
sI2505
F0.054557540720976724
sI2507
F0.0702093024403541
sI2509
F5.905312313866209e-29
sI2519
F0.599917682826469
sI2531
F0.7528514415539896
sI2535
F0.5335099345551056
sI2537
F1.0
sI2567
F0.8978159104505126
sI2571
F0.6980640501564295
sI2573
F0.567678575089483
sI2582
F0.11407962069130217
sI2583
F0.2040361049149379
sI2585
F0.23446996329467512
sI2588
F5.653910607290866e-50
sI2589
F0.2438793027822893
sI2590
F8.666442872742957e-45
sI2592
F0.3906902416334668
sI2594
F0.28711036628412445
sI2597
F0.8932041596192339
sI2598
F0.11865198682065058
sI2599
F0.4715381871383907
sI2603
F0.7637624446260927
sI2607
F0.0034684770870816242
sI2609
F0.09973188673267772
sI2610
F0.39000137055986656
sI2611
F0.7402520877392883
sI2613
F0.7382784229922419
sI2615
F0.7549441586099898
sI2617
F0.0956215041344741
sI2621
F0.8029187600279878
sI2625
F0.5279003972746057
sI2627
F0.4342376867404186
sI2636
F0.3960669303485437
sI2637
F0.9807115832607526
sI2639
F1.0
sI2642
F1.0
sI2643
F0.878456324620097
sI2644
F0.7599251094992808
sI2646
F0.4418384392343395
sI2647
F0.2846333590806011
sI2649
F0.475186324042865
sI2651
F0.1573024338647064
sI2653
F2.915494581763154e-32
sI2655
F0.2402609074066211
sI2657
F0.018899643397456048
sI2660
F1.0
sI2661
F5.315367441124716e-26
sI2662
F9.741398964898366e-50
sI2665
F0.751941903236757
sI2667
F0.025721821578878673
sI2668
F0.3615367828000655
sI2673
F0.1810175393021585
sI2674
F0.5053185872106217
sI2676
F0.20709326790936503
sI2678
F0.05837817077566451
sI2680
F0.15002775687997844
sI2682
F0.38341679173218857
sI2684
F0.21852387791417088
sI2687
F0.45178325165683425
sI2688
F0.03348075853171625
sI2689
F0.40208976632878535
sI2692
F0.20426368789890392
sI2694
F0.1945794947987742
sI2695
F0.24456067485230992
sI2700
F0.19726916095004185
sI2702
F0.27344736355460386
sI2705
F0.10038557286760133
sI2706
F0.1059812067343675
sI2707
F0.019687975507629202
sI2711
F0.4926880645183851
sI2715
F3.2650709933838615e-23
sI2717
F4.7938154063462206e-26
sI2718
F0.4648871775307617
sI2719
F0.9486687280335069
sI2721
F0.7380236576862345
sI2723
F0.195025732587092
sI2725
F0.19655601227585612
sI2728
F0.46203772568986257
sI2730
F0.1538370751177433
sI2731
F0.10984610873378545
sI2736
F0.20321333448991777
sI2737
F0.26977261692155197
sI2739
F0.5163401315532501
sI2741
F0.6527784316240641
sI2743
F0.2735820142456614
sI2749
F0.7167585995386123
sI2754
F0.24658489072369322
sI2756
F0.33153392115487607
sI2759
F3.091630018413853e-115
sI2760
F0.06367483900990942
sI2761
F0.3611399565256087
sI2765
F0.3192478662523744
sI2769
F1.672949965445479e-30
sI2771
F5.804842496971138e-33
sI2772
F0.09719830490990586
sI2773
F0.4491473289471075
sI2775
F1.6832434884955115e-141
sI2779
F0.38260819255273204
sI2783
F0.0843043002256724
sI2787
F0.42344028184330695
sI2789
F0.5243286773930296
sI2798
F3.843163528566033e-44
sI2799
F0.4293714313577703
sI2801
F0.29082852428515565
sI2804
F2.4866161820489522e-58
sI2805
F0.714342027811282
sI2806
F0.3391021436943845
sI2808
F0.15056218925663886
sI2809
F0.14411528694888906
sI2811
F2.5573364124188926e-99
sI2815
F8.490893602945091e-33
sI2817
F0.05624509197353919
sI2819
F7.26368170017975e-05
sI2822
F3.4508731733953033e-47
sI2823
F6.798251614637554e-31
sI2824
F4.34710126471749e-42
sI2827
F1.0420686354619165e-07
sI2830
F1.285550435407199e-41
sI2836
F0.5386419976669354
sI2838
F0.6543821592723474
sI2839
F0.7062889998223217
sI2844
F0.4002837529135886
sI2845
F0.39722397593730513
sI2847
F0.32839519167000947
sI2849
F0.2548713277420287
sI2851
F0.31570213024823807
sI2857
F1.0
sI2862
F0.1523250495972018
sI2863
F0.02037757941461371
sI2865
F0.7907334530708907
sI2867
F0.3082287352123797
sI2869
F1.745293303473182e-29
sI2871
F0.4325045738019898
sI2873
F0.5906296944990916
sI2876
F0.887652246739619
sI2877
F6.762632314351403e-25
sI2878
F1.888470977797457e-39
sI2881
F0.395247430388725
sI2883
F0.9731357752323184
sI2884
F1.0
sI2893
F1.0
sI2899
F1.0
sI2901
F1.0
sI2918
F0.05651957471750336
sI2922
F0.4132641178946896
sI2924
F0.22566759630799293
sI2933
F0.07967692683024423
sI2934
F0.1764917743767057
sI2936
F0.01928556124997817
sI2939
F0.0584642229092379
sI2940
F0.3879621693949381
sI2941
F0.05931616438174908
sI2951
F0.4307844244696744
sI2963
F0.703589553124448
sI2967
F0.8592298716011062
sI2969
F1.0
sI2970
F0.09786424614766412
sI2972
F0.0630549940132675
sI2975
F0.09230578348531851
sI2976
F0.02048225973024346
sI2977
F0.002472122146316979
sI2981
F0.30252238042718077
sI2985
F0.14689397700755447
sI2987
F5.514979653384155e-33
sI2988
F0.10682439020585882
sI2989
F0.5187262208764264
sI2991
F0.3562702349801871
sI2993
F4.1600770831818725e-27
sI2995
F2.234134393534205e-28
sI3005
F0.9942687779452482
sI3017
F0.9778879541683284
sI3021
F0.5317269877308934
sI3023
F1.0
sI3053
F0.056016453868835483
sI3057
F0.11350860015135583
sI3059
F0.08738845298347919
sI3068
F2.1062458333711557e-44
sI3069
F0.21683261160664435
sI3071
F0.0008019258852023413
sI3074
F4.903985730770867e-38
sI3075
F0.5011522053732518
sI3076
F7.837727384575844e-48
sI3078
F0.33272980790214546
sI3080
F0.704121139567668
sI3083
F0.8550750020534152
sI3084
F0.016757506165446696
sI3085
F0.022883814372135255
sI3089
F0.1485088499701058
sI3093
F0.022499629508345366
sI3095
F0.0009424887411160652
sI3096
F0.26080768255336056
sI3097
F0.008046122658679867
sI3099
F0.5187458499542467
sI3101
F0.551545221880233
sI3103
F2.1203114892712234e-34
sI3107
F0.9715917789895772
sI3111
F0.06590672303600023
sI3113
F0.5868148635508446
sI3122
F0.7421553415443035
sI3123
F0.030979717011877995
sI3125
F0.020425226837069474
sI3128
F0.954407525835984
sI3129
F0.004228102943982535
sI3130
F4.7890485652059244e-36
sI3132
F0.028207235304595894
sI3133
F0.8618442147924513
sI3135
F0.7768225272063539
sI3137
F0.25572901520275454
sI3139
F0.0946306719607106
sI3141
F0.1916974914228981
sI3143
F0.02595256524070319
sI3146
F1.0
sI3147
F0.01470986707921449
sI3148
F0.9928712033333571
sI3151
F0.4848518416892943
sI3153
F0.322054990516791
sI3154
F0.36054391741535907
sI3167
F0.7150833146883857
sI3179
F0.9441556395320705
sI3183
F0.6976850917197711
sI3185
F1.0
sI3215
F0.4429303574161085
sI3219
F0.3180259415182995
sI3221
F0.4774087581647103
sI3230
F4.3759897645873796e-39
sI3231
F0.32775420459839044
sI3233
F0.5133842696389874
sI3236
F4.3334338716607135e-38
sI3237
F5.645904118564112e-07
sI3238
F3.9701721455402294e-35
sI3302
F0.6549986447324151
sI3314
F0.8874701574826397
sI3318
F0.7573205456789042
sI3320
F1.0
sI3323
F0.6049128570287026
sI3327
F0.5488979405525567
sI3329
F0.37704860106623783
sI3338
F0.9975154754517627
sI3339
F0.33143563737347004
sI3341
F0.9510482121087223
sI3344
F0.8872532976894453
sI3345
F1.0635542069536789e-05
sI3346
F1.4029890025354844e-58
sI3356
F1.0
sI3368
F1.0
sI3372
F0.8800122034200016
sI3374
F1.0
sI3375
F0.1328208376880889
sI3377
F0.1439911863018499
sI3380
F0.04088544910519448
sI3381
F9.61915233298812e-31
sI3382
F1.6110349383446532e-52
sI3386
F0.11439907670015653
sI3390
F6.011307086767542e-34
sI3392
F8.326992581482987e-72
sI3393
F1.591381000898594e-30
sI3394
F6.382226176485486e-52
sI3396
F7.147362926124947e-51
sI3398
F1.6395077143086546e-82
sI3400
F2.1707435369274862e-100
sI3402
F0.4085844825252818
sI3404
F0.14891320138875358
sI3407
F0.7145118633414486
sI3408
F0.31424492208278965
sI3409
F0.07488568463252104
sI3413
F0.39285486719081614
sI3417
F0.04358407813913454
sI3419
F9.748136319539725e-27
sI3420
F0.3255794165708017
sI3421
F0.47377803474363683
sI3423
F0.20282155206797936
sI3425
F0.027831591716693936
sI3427
F0.5284691612347541
sI3431
F0.7001717654814635
sI3435
F0.296715131310165
sI3437
F0.8924238853163448
sI3446
F1.0725215920534477e-30
sI3447
F0.9999684185538844
sI3449
F0.38213207023687523
sI3452
F0.7059819862470076
sI3453
F0.7138822448274298
sI3454
F4.2535295865117454e-26
sI3456
F0.20178039975879955
sI3457
F0.4955230072336225
sI3459
F0.9315145756750273
sI3461
F0.0015828803879129505
sI3463
F0.029582659119243133
sI3465
F0.15691160625691014
sI3467
F0.11410659046750646
sI3470
F0.8641355982275123
sI3471
F0.027862292990105002
sI3472
F0.7214978086108703
sI3475
F0.6985499937756061
sI3477
F0.2588022510684213
sI3478
F1.0
sI3485
F0.5312794033519826
sI3489
F0.41361376217874424
sI3491
F0.11238813563462019
sI3500
F1.1692013098647274e-33
sI3501
F0.42014202729353184
sI3503
F0.6974014233125525
sI3506
F2.156795733372064e-46
sI3507
F0.0767482944173456
sI3508
F0.743199920899081
sI3518
F0.9995950878311515
sI3530
F1.0
sI3534
F1.0
sI3536
F1.0
sI3537
F0.12237797618719329
sI3539
F9.90813408199535e-32
sI3542
F7.482888383134257e-35
sI3543
F2.621100034051979e-28
sI3544
F7.61939181171591e-40
sI3548
F2.208558830972994e-48
sI3552
F1.1417981541647729e-31
sI3555
F0.07990936931517884
sI3556
F0.3614269522278676
sI3558
F5.142201741628796e-42
sI3562
F1.0147209120930432e-79
sI3564
F0.13257308155833789
sI3565
F0.9381276968983624
sI3567
F0.906024206139975
sI3569
F0.6508608959598635
sI3571
F0.00066687020778871
sI3573
F0.35166082249176067
sI3575
F0.11762551261781615
sI3578
F1.0
sI3579
F0.0009103536358833957
sI3580
F0.9423173931184052
sI3583
F0.0029239002322761767
sI3585
F0.5662470808009662
sI3586
F1.0
sI3591
F0.15138953715932177
sI3593
F0.010387382183630453
sI3596
F0.8880248089418512
sI3597
F1.7987464658764576e-31
sI3598
F8.034690221294992e-41
sI3602
F0.9604279015566058
sI3606
F2.4255593749840697e-51
sI3608
F1.3041558547850482e-79
sI3609
F0.013263383347839944
sI3610
F8.424983333484623e-45
sI3612
F0.7524404825039861
sI3614
F4.79469545889322e-76
sI3619
F1.0
sI3621
F1.0
sI3627
F1.0
sI3632
F1.0
sI3634
F1.0
sI3640
F1.0
sI3645
F0.26061341714622327
sI3646
F0.23267675545478206
sI3648
F0.44316111450246776
sI3650
F0.2864549859107796
sI3652
F0.216116875418063
sI3654
F0.2581893309463869
sI3656
F0.35910842888328504
sI3659
F0.9748497127036215
sI3660
F0.02275310554584941
sI3661
F4.361477332250568e-27
sI3664
F0.3407101173769754
sI3666
F0.7841469418506855
sI3667
F0.7624976419930709
sI3672
F0.16512608252363978
sI3674
F0.08676454374122086
sI3677
F0.2817408030501838
sI3678
F0.06872979226398661
sI3679
F0.4181013189708777
sI3683
F0.0927592352991751
sI3687
F9.451721472949989e-24
sI3689
F7.857135125470236e-31
sI3690
F0.3177512815105101
sI3691
F0.771885842883415
sI3693
F0.9451811983211792
sI3695
F0.6517011841153701
sI3697
F0.34008832804501576
sI3700
F0.269939358173387
sI3702
F0.3831830695905748
sI3703
F0.35008185350910137
sI3708
F0.2591704632974666
sI3709
F0.08749498765453287
sI3711
F0.35672396679856233
sI3713
F1.0
sI3715
F1.2041607890116686e-28
sI3721
F0.19773894671847875
sI3726
F0.5015228037469572
sI3728
F0.6758872654089874
sI3731
F1.723641332219404e-143
sI3732
F0.33137605885237287
sI3733
F2.2695246192373724e-40
sI3737
F0.7536717081444939
sI3741
F0.19588565770410238
sI3743
F0.06528546186228158
sI3744
F0.16082362885935003
sI3745
F0.04455029802566804
sI3747
F5.98008216632987e-132
sI3751
F1.899424155217177e-40
sI3755
F0.007966614480863807
sI3759
F0.04225955427615771
sI3761
F0.028878286035524774
sI3770
F1.1529920982568743e-52
sI3771
F0.11253449212671526
sI3773
F0.0003878545596006891
sI3776
F3.138550867693356e-39
sI3777
F0.4247200413218239
sI3778
F1.634679968184004e-43
sI3780
F0.0487576708532987
sI3781
F2.9001410371363888e-39
sI3783
F7.402983151916217e-150
sI3787
F2.5170121858137244e-46
sI3789
F0.2876352998621946
sI3791
F1.0
sI3795
F0.12946983280985497
sI3796
F7.269829630464342e-53
sI3799
F6.804455865913867e-42
sI3802
F8.227522786606075e-43
sI3808
F0.305994013546261
sI3810
F0.4592655558343959
sI3811
F0.4706108463877569
sI3816
F0.23143131452899154
sI3817
F0.08973057655694133
sI3819
F0.382182692774384
sI3821
F0.4835276499288184
sI3823
F2.602811911125169e-33
sI3829
F1.0
sI3834
F0.41207515032493064
sI3835
F0.624645879947185
sI3837
F0.986351152735099
sI3839
F0.9438971317379818
sI3841
F0.5612346759195418
sI3843
F0.15835673933114117
sI3845
F0.16459685511651814
sI3848
F0.9903784108545267
sI3849
F5.269442229514759e-27
sI3850
F1.4661493500732905e-49
sI3853
F1.0
sI3855
F1.0
sI3865
F0.8754352498061776
sI3871
F0.10753804065069014
sI3873
F0.01791039798546238
sI3874
F1.447401115466462e-51
sI3888
F0.4873641539567779
sI3890
F0.7271135641465586
sI3893
F0.9921973316523003
sI3894
F0.13122189136481519
sI3895
F0.20787511825116062
sI3899
F0.9607989275643888
sI3903
F0.0014678460123893808
sI3905
F0.07638959001310629
sI3906
F0.539721312488453
sI3907
F0.7344173869883522
sI3909
F0.7151316471752861
sI3911
F0.0069925913116625875
sI3913
F0.0550516701194077
sI3917
F0.5510772160191217
sI3921
F0.12521687272498316
sI3923
F0.47824865493015833
sI3932
F1.9510003981105925e-37
sI3933
F0.9645192072361637
sI3935
F0.7571462196406987
sI3938
F0.11873493865653226
sI3939
F0.899456434329642
sI3940
F0.39959569562690844
sI3942
F0.6656348730689087
sI3943
F0.38734323294346107
sI3945
F0.8982703105143169
sI3947
F1.0
sI3949
F2.2609226768377613e-28
sI3951
F0.3017746560350245
sI3953
F1.0
sI3957
F0.001917900642377345
sI3958
F1.1786918920656334e-31
sI3961
F0.19400778175842592
sI3963
F0.7761875870661645
sI3964
F0.7150605253521084
sI3971
F0.7534899685135593
sI3975
F0.14648742701003878
sI3977
F0.6118478216923133
sI3986
F0.3432312088931724
sI3987
F0.1645701733983418
sI3989
F0.2808617786643583
sI3992
F1.4821387422376575e-53
sI3993
F0.22423954234257715
sI3994
F3.750296908748082e-48
sI4004
F6.070840288205446e-56
sI4016
F6.365737426045318e-60
sI4020
F1.5914343565113296e-59
sI4023
F0.2926697727654051
sI4025
F1.0
sI4029
F0.03560020543405596
sI4030
F2.7978024441727517e-47
sI4038
F0.10598823172431024
sI4040
F1.0
sI4041
F0.05984696410650095
sI4042
F4.412698499417176e-52
sI4044
F1.5914343565113296e-59
sI4048
F1.8760475821686176e-102
sI4050
F0.44651515150662136
sI4051
F0.9507457445788037
sI4053
F0.9886523781611019
sI4055
F1.0
sI4057
F0.26887725027881837
sI4059
F0.35814000743112506
sI4061
F0.4207418945707819
sI4064
F1.0
sI4065
F8.008640206872159e-31
sI4066
F2.1847205526991848e-55
sI4069
F1.0
sI4071
F1.0
sI4077
F0.9007582544311801
sI4079
F0.6716355068749769
sI4082
F1.0
sI4083
F0.09762599300743
sI4084
F0.7355567979141372
sI4088
F0.6231421390720362
sI4092
F5.953744556568493e-39
sI4094
F1.1699674401180697e-68
sI4095
F1.0
sI4100
F1.0
sI4102
F1.0
sI4105
F0.6585222450814526
sI4107
F0.9941226161047687
sI4108
F0.8953817450116349
sI4113
F0.128077270269277
sI4114
F1.9525842903033464e-59
sI4116
F0.6100172688622735
sI4118
F1.0
sI4120
F3.183373460357207e-93
sI4126
F1.0
sI4132
F0.2470767876325098
sI4134
F0.028739823816460966
sI4135
F0.09747682029163607
sI4140
F0.048663200084186176
sI4141
F0.10940908222875254
sI4143
F0.16668175880812658
sI4145
F0.10267341425777338
sI4147
F2.6813168142645487e-28
sI4153
F0.0021068769458307776
sI4158
F0.03441043829546155
sI4159
F0.645176384777963
sI4161
F0.1375467196714252
sI4163
F3.070928458309192e-25
sI4165
F1.9291385456863844e-24
sI4167
F4.225439823553038e-23
sI4169
F5.2453797996267e-30
sI4172
F4.071319579416299e-41
sI4173
F2.0595608340952155e-25
sI4174
F1.259920788991823e-35
sI4177
F0.906528183661229
sI4179
F0.15083327688489884
sI4180
F1.0
sI4189
F0.3893982459469125
sI4195
F0.4431263342690238
sI4197
F0.2798014228955307
sI4198
F4.355614296588029e-28
sI4212
F0.01559797442386732
sI4213
F0.29938613512158185
sI4215
F4.393470502483651e-106
sI4219
F8.77820276371779e-41
sI4221
F0.0691411393963657
sI4223
F0.5318417512791357
sI4226
F3.8853377844514866e-57
sI4227
F4.093068435792618e-34
sI4228
F5.82742060940145e-48
sI4231
F0.4542770732383863
sI4234
F5.653910607290866e-50
sI4239
F0.056899776603799745
sI4241
F6.63251330187854e-40
sI4244
F5.39198933343016e-46
sI4245
F4.264177171843956e-30
sI4246
F5.654888053212297e-46
sI4250
F1.9448449297700719e-54
sI4254
F2.8883433253362347e-39
sI4256
F2.7729616457930063e-104
sI4257
F0.0948078781696389
sI4258
F0.7564957364242308
sI4260
F3.29100911464243e-43
sI4264
F5.561679600443448e-87
sI4267
F7.18430645814238e-39
sI4270
F3.138550867693356e-39
sI4275
F0.03865067027030275
sI4276
F3.5264936063043915e-55
sI4278
F3.7053468555941432e-53
sI4282
F2.065256968545757e-108
sI4297
F0.6429899021179666
sI4303
F0.0678170152329856
sI4305
F0.01442960133373192
sI4306
F2.4283361152821786e-56
sI4321
F0.28574347018384777
sI4323
F0.3702385083464148
sI4324
F0.35444553825084246
sI4329
F1.0138715491242458e-28
sI4330
F1.0268502883366498e-51
sI4332
F1.7188268825591717e-40
sI4334
F1.3833500904918018e-78
sI4336
F1.907025593073683e-94
sI4342
F1.0
sI4375
F0.17670633249016016
sI4377
F0.2795941737919411
sI4378
F0.08688259168389426
sI4383
F0.15997073374985438
sI4384
F0.35629620573413684
sI4386
F0.17903864763809318
sI4388
F0.08606505788559457
sI4390
F0.4286916744670731
sI4396
F0.11374000354217204
sI4401
F0.2866391443874233
sI4402
F0.08607066023807261
sI4404
F0.36383996865409807
sI4406
F0.1520954455629511
sI4408
F0.45397223072641985
sI4410
F0.15653530799929127
sI4412
F0.23198815835464004
sI4415
F0.23720601828203675
sI4416
F0.29272880823095226
sI4417
F0.37841371646889904
sI4420
F0.009420135606168887
sI4422
F0.2145579542213058
sI4423
F0.5164630484661847
sI4432
F0.05148249545417652
sI4438
F0.1436402377472741
sI4440
F0.1469015239106457
sI4441
F5.678427533559491e-89
sI4455
F0.09387742092389528
sI4456
F0.1730536517429427
sI4458
F0.37301178744505525
sI4460
F0.1311553601367114
sI4462
F1.5657258733931862e-05
sI4464
F0.13063991657259202
sI4466
F0.016471327328909876
sI4469
F0.6552581484615752
sI4470
F0.43798328898305927
sI4471
F0.5267716257755043
sI4474
F0.028050013779417425
sI4476
F0.10625496110262804
sI4477
F0.67284958106921
sI4482
F0.12622001092846308
sI4484
F0.13537567744923668
sI4487
F0.07797210576240189
sI4488
F0.025687164342853938
sI4489
F0.016936374739211404
sI4493
F0.004206323063538003
sI4497
F0.06166477683568371
sI4499
F6.801483293949747e-30
sI4500
F0.023552481124670586
sI4501
F0.011669915532813924
sI4503
F0.06502617365621531
sI4505
F1.0904804565065963e-33
sI4507
F1.5444823375469592e-30
sI4510
F0.04355835639187991
sI4512
F0.0343814456014818
sI4513
F0.05304991294015325
sI4518
F0.011365396926051666
sI4519
F0.03605671043181854
sI4521
F0.8260974431309007
sI4523
F0.27757665220978445
sI4525
F1.615652036934812e-39
sI4531
F4.257205100371075e-36
sI4540
F0.03748748889362809
sI4546
F0.1456437142167347
sI4548
F0.025362657412591687
sI4549
F5.438853046443784e-124
sI4564
F0.7428735121817748
sI4566
F0.2344526512654113
sI4567
F0.09785595707302153
sI4572
F0.41234205205935026
sI4573
F0.8807612901923858
sI4575
F0.07333650208794047
sI4577
F0.6755048447964375
sI4579
F1.0
sI4585
F0.06271052587429125
sI4617
F0.14045545360640171
sI4618
F0.12134487915991209
sI4620
F0.1498184718192263
sI4622
F0.3129849054925645
sI4624
F0.18602005068749483
sI4626
F0.4063006034639889
sI4628
F0.16359141710176708
sI4631
F0.4681225287966849
sI4632
F0.275675798201417
sI4633
F0.6589126807333328
sI4636
F0.061077327904171516
sI4638
F0.19032375061705042
sI4639
F0.11315173138159798
sI4644
F0.7600809331122753
sI4646
F0.1632221397984555
sI4649
F0.08887205253492744
sI4650
F0.8427923716086159
sI4651
F0.8252324333397196
sI4655
F0.6420469079182718
sI4659
F0.9400333991722598
sI4661
F0.07785241588191089
sI4662
F0.04050795919900407
sI4663
F0.2663958366911815
sI4665
F0.6038893787595783
sI4667
F1.1901518682482367e-23
sI4669
F0.2234371332618435
sI4672
F0.04074055225913681
sI4674
F0.13641563239759957
sI4675
F0.00936060896712483
sI4680
F0.0902138154314066
sI4681
F0.043387505887994254
sI4683
F0.0794385285345238
sI4685
F0.04317197130339874
sI4687
F0.037047638843319235
sI4693
F4.5921596540545655e-24
sI4698
F0.1158052213920113
sI4700
F0.017088307463363938
sI4703
F0.2683532877175661
sI4704
F0.011730275440889629
sI4705
F1.9420221004315868e-05
sI4709
F0.1539663416184841
sI4713
F0.32380811668480186
sI4715
F2.2530968409557043e-26
sI4716
F0.013251480532810818
sI4717
F0.007449407487195829
sI4719
F0.07325723401230629
sI4721
F3.54616691695072e-33
sI4723
F1.5708458766482512e-27
sI4727
F1.327844982041939e-121
sI4731
F6.703903964971389e-103
sI4742
F1.1150372599265359e-29
sI4743
F7.914572847139467e-117
sI4748
F3.2138760885179975e-41
sI4750
F1.0889035741470071e-27
sI4752
F0.30402268133666027
sI4753
F0.4922883902932974
sI4755
F0.3849558680117282
sI4757
F0.24841451827535865
sI4759
F9.311396539553117e-36
sI4761
F0.42258889790112986
sI4763
F9.55461984121214e-07
sI4766
F0.9983633658198542
sI4767
F6.068127462906919e-27
sI4768
F1.7558538532538556e-39
sI4771
F5.64457026413482e-41
sI4773
F1.1913479785353282e-32
sI4774
F2.0135026596517505e-43
sI4780
F0.3873728899847901
sI4782
F0.05029173506817602
sI4783
F0.3998788911534757
sI4788
F0.03959337121186508
sI4789
F0.7550637231042188
sI4791
F0.004218255876136444
sI4793
F0.5812946438832797
sI4795
F1.0
sI4801
F0.43117703668836194
sI4806
F0.6681026067962331
sI4807
F0.7709496982353858
sI4809
F0.6811206785378097
sI4811
F0.5349313534639486
sI4813
F1.0
sI4815
F0.68712839145359
sI4817
F0.6045832014330662
sI4820
F0.9527472285899259
sI4821
F1.0
sI4825
F0.247598730207375
sI4827
F0.7943358514565557
sI4828
F0.7048573154915319
sI4837
F1.1235347446452037e-27
sI4843
F0.011102816556181158
sI4845
F5.88562679334122e-29
sI4846
F4.567192616659092e-32
sI4864
F0.05759693706153976
sI4870
F0.06996948820178699
sI4872
F0.07925561836624273
sI4873
F2.2713710134237964e-89
sI4888
F0.03476367590893237
sI4890
F0.023990567125413212
sI4891
F0.23908456727985172
sI4896
F0.020647108338464965
sI4897
F0.06934827737549744
sI4899
F0.024822490539894812
sI4901
F3.570621932329895e-22
sI4903
F0.1063638656498202
sI4909
F5.464305887777536e-05
sI4942
F0.056665240702522185
sI4944
F0.050091330635506914
sI4945
F0.6857489188435377
sI4950
F0.05065655764399452
sI4951
F0.025318607843567167
sI4953
F0.025933472624533382
sI4955
F1.7719829838234224e-34
sI4957
F1.0497056510310682e-40
sI4963
F0.10037751250596927
sI4968
F0.17151825392279968
sI4969
F0.4026540460887357
sI4971
F0.6943725097279569
sI4973
F3.7037157549494746e-31
sI4975
F9.42552412738556e-30
sI4977
F0.2608913810808108
sI4979
F1.1169900472750396e-36
sI4982
F4.057062663384462e-36
sI4983
F1.1097905733589168e-34
sI4984
F8.906189175765751e-40
sI4987
F0.0001615730732304596
sI4989
F0.8516906567177754
sI4990
F0.9911762100639737
sI4999
F3.5301060811879414e-25
sI5005
F1.1219749881202983e-30
sI5007
F3.5835011922978134e-29
sI5008
F1.7840596158824575e-30
sI5053
F8.862763375126717e-29
sI5059
F0.15028906223709917
sI5061
F1.1603636811262388e-27
sI5062
F3.0649910817317916e-37
sI5103
F0.08954959946782867
sI5104
F0.16952458751417362
sI5106
F0.2534757004841805
sI5108
F0.2572863125372547
sI5110
F0.03650317328605109
sI5112
F0.36622173444254286
sI5114
F0.08473463376817722
sI5117
F0.1518219978703277
sI5118
F0.8950853559652497
sI5119
F0.8945835731234669
sI5122
F0.07074388571629607
sI5124
F0.035729598766445415
sI5125
F0.024507722970055372
sI5130
F0.12232655702027961
sI5132
F0.5421605188307106
sI5135
F0.06695221569899051
sI5136
F0.0877798325993864
sI5137
F1.5608742751580148e-96
sI5141
F0.7921715137065304
sI5145
F0.5044631526583323
sI5147
F0.21005276458619132
sI5148
F0.3241204102271109
sI5149
F2.4388660549343975e-95
sI5151
F0.5264153084329112
sI5153
F4.982918384902791e-24
sI5158
F0.25800824389254334
sI5160
F0.10389475280334468
sI5161
F0.019171291455559597
sI5166
F0.11440068240763743
sI5167
F0.2591857360146537
sI5169
F0.1641952517185326
sI5171
F3.361161167653276e-26
sI5173
F0.2568624325525658
sI5179
F1.573960057822958e-26
sI5184
F0.03850453518208044
sI5186
F0.07742576709915817
sI5189
F1.6596952967169394e-39
sI5190
F0.001112389446734573
sI5191
F5.244752032378171e-33
sI5195
F7.914572847139467e-117
sI5199
F4.6068877256122985e-110
sI5202
F0.051544146995592864
sI5203
F0.0037280369766180756
sI5205
F0.020114562967941167
sI5207
F3.7574401594529164e-42
sI5209
F1.4584916706239258e-33
sI5213
F0.09023367541965088
sI5217
F0.0005799298503719295
sI5219
F0.06863436580870581
sI5228
F3.2138760885179975e-41
sI5229
F0.06722050622914315
sI5231
F0.0007136719344704521
sI5234
F1.4314893611826776e-50
sI5235
F0.0007423474245041211
sI5236
F7.482888383134257e-35
sI5238
F6.558554631882633e-33
sI5239
F5.496545552984627e-39
sI5241
F7.926096436274843e-33
sI5243
F1.0597979131634822e-41
sI5245
F9.421093577284531e-42
sI5247
F7.198262071269217e-109
sI5252
F8.834235323891978e-49
sI5254
F5.0216813883093696e-40
sI5257
F2.5868350981493103e-39
sI5259
F1.9152869472145216e-33
sI5260
F2.3019457772390923e-42
sI5266
F0.2801927511714477
sI5268
F0.16378798361277902
sI5269
F0.18696338571620835
sI5274
F0.34840707273505955
sI5275
F0.7638292229355348
sI5277
F0.31764728528427766
sI5279
F0.3729498656040474
sI5281
F1.0
sI5287
F4.89113349378131e-36
sI5292
F0.2701520030136671
sI5293
F1.0520271803096945e-140
sI5295
F0.5963381819845968
sI5297
F0.8917267646381292
sI5301
F0.9270637481699678
sI5303
F0.9237390045446034
sI5306
F0.9835580049376715
sI5307
F1.0
sI5313
F2.1464025534976387e-27
sI5314
F3.7053468555941432e-53
sI5323
F0.7793129856048086
sI5329
F0.3018595331703833
sI5331
F0.36174099278219285
sI5332
F2.4866161820489522e-58
sI5346
F0.10300141830852781
sI5348
F0.2585624360166761
sI5351
F0.21975878787088693
sI5352
F0.12507720873757847
sI5353
F0.4102725853728473
sI5357
F0.11911825295111708
sI5361
F0.9824457555589765
sI5363
F0.07244261185903984
sI5364
F0.0497519090618172
sI5365
F0.0002341498474016474
sI5367
F2.5368730622529982e-24
sI5369
F2.416860865051848e-27
sI5371
F0.00039728129415207995
sI5375
F0.6376112701656671
sI5379
F0.6971129892314437
sI5381
F0.8930422677109061
sI5390
F0.6600040166872685
sI5391
F0.07567205141673308
sI5393
F0.014754968452839818
sI5396
F3.239949551921152e-33
sI5397
F0.00615408388877031
sI5398
F7.307508186654547e-33
sI5400
F0.2691141403315477
sI5401
F0.04955971704181688
sI5403
F1.7749924344041625e-25
sI5405
F1.9876364048780781e-25
sI5407
F0.07763550675426223
sI5409
F0.07537109890118565
sI5411
F4.1344182238824294e-30
sI5414
F1.5665705407548143e-38
sI5415
F0.04188118904561573
sI5416
F0.9613389116744063
sI5419
F6.745654983967357e-28
sI5421
F1.4928137091794344e-26
sI5422
F3.5136892033498916e-31
sI5429
F0.008855138693081433
sI5433
F0.011212072080130267
sI5435
F0.0022512216613579466
sI5444
F1.0889035741470071e-27
sI5445
F0.007646653800519308
sI5447
F0.0014421400728047303
sI5450
F6.214089338516932e-48
sI5451
F0.011031141281971031
sI5452
F1.826945242708702e-57
sI5462
F4.074071952669004e-61
sI5474
F6.999202319305696e-68
sI5478
F6.518515124270407e-62
sI5481
F3.057866815320202e-29
sI5483
F4.238982937309454e-36
sI5486
F2.4052376059351557e-46
sI5487
F6.129502291444234e-29
sI5488
F9.611440397344109e-51
sI5492
F1.91561942608237e-36
sI5496
F1.7014118346046983e-26
sI5499
F3.604039315400475e-33
sI5500
F1.741562359356885e-49
sI5502
F9.362491024557724e-37
sI5504
F1.072641496936598e-103
sI5506
F1.2401344259904365e-105
sI5508
F0.08637354777839182
sI5509
F0.1724960556737027
sI5511
F0.002285654209745477
sI5513
F0.23180636848034075
sI5515
F1.0
sI5517
F0.05099903644093666
sI5519
F0.5153076073453428
sI5522
F0.8436987561626746
sI5523
F1.0
sI5527
F0.07111252762260355
sI5529
F1.477677307940978e-28
sI5530
F4.766336140476268e-43
sI5535
F0.6341652146825161
sI5537
F0.8042016007697941
sI5540
F0.30107448270964654
sI5541
F1.0
sI5546
F1.0
sI5552
F1.0
sI5553
F0.014859999021465807
sI5554
F3.8853377844514866e-57
sI5556
F1.3104567269943795e-39
sI5558
F4.821776221218238e-75
sI5563
F0.072297406615967
sI5565
F6.643244191008521e-36
sI5566
F1.312945453577205e-51
sI5571
F0.013208844634269211
sI5572
F0.8583055874355061
sI5574
F3.0399886962510607e-50
sI5576
F1.016601189153169e-86
sI5578
F1.0
sI5584
F1.488571461405197e-92
sI5590
F0.35291410235965304
sI5592
F0.16080252822941804
sI5593
F0.04219363646889424
sI5598
F0.01921698177149178
sI5599
F0.5189038857960107
sI5601
F0.03671569610760717
sI5603
F6.013433547990067e-23
sI5605
F0.02876218777871111
sI5611
F0.010116335528793905
sI5616
F0.08345296694421787
sI5617
F3.549017208474682e-88
sI5619
F0.08554775227658933
sI5621
F7.0748993081543e-22
sI5625
F0.01084197365643464
sI5627
F1.4371015835361837e-24
sI5630
F2.296647363767919e-28
sI5631
F0.01108376030696908
sI5632
F7.307508186654547e-33
sI5637
F0.0012537847864917961
sI5638
F1.285550435407199e-41
sI5647
F0.001144734276095026
sI5653
F0.2867424013667081
sI5655
F0.013892579826411008
sI5656
F2.7875931498163394e-29
sI5670
F0.010258647439373877
sI5671
F0.01545841740377078
sI5673
F0.18834217047871843
sI5675
F2.329560218950592e-39
sI5677
F1.0509708474463438e-32
sI5679
F1.9322687615086578e-114
sI5684
F1.4821387422376575e-53
sI5686
F1.316403645856972e-43
sI5689
F0.003213009869362427
sI5691
F0.02197822956155141
sI5692
F0.2631148559728111
sI5697
F0.008782976273485774
sI5699
F1.7372058315710607e-36
sI5702
F1.3796737495404857e-39
sI5703
F4.068906181412519e-32
sI5704
F4.67680523945891e-34
sI5708
F8.834235323891978e-49
sI5712
F3.29100911464243e-43
sI5715
F0.002292469579320959
sI5716
F2.4866161820489522e-58
sI5718
F0.984144501008245
sI5720
F2.61505784041699e-87
sI5725
F9.64711146401555e-39
sI5727
F1.1639394755581262e-36
sI5728
F1.5760444444518055e-44
sI5734
F2.0568806966515186e-42
sI5736
F5.142201741628796e-42
sI5746
F2.5264832117430818e-85
sI5755
F0.2413660757650115
sI5761
F0.0009850212213085778
sI5763
F0.030918393266541888
sI5764
F3.2138760885179975e-41
sI5781
F4.738680459175289e-26
sI5782
F2.0568806966515186e-42
sI5787
F0.02428239784784455
sI5788
F2.5462949704181275e-60
sI5790
F1.4825013014349033e-32
sI5792
F1.202928612721198e-74
sI5836
F0.6012050786105645
sI5842
F0.4096736034598296
sI5844
F0.22305407539945235
sI5845
F3.241809038188326e-119
sI5860
F0.5245110214988256
sI5862
F0.6886037806075593
sI5863
F0.9594794668840625
sI5868
F0.35027219711607094
sI5869
F0.3328067126563552
sI5871
F0.25501006582066593
sI5873
F0.31721106442728825
sI5875
F0.42422336504862485
sI5881
F0.9084828267854266
sI5914
F0.37285198660059776
sI5916
F0.24317673359918718
sI5917
F0.19494286762004231
sI5922
F0.21938880349228235
sI5923
F0.6871425213691911
sI5925
F0.1977748937688681
sI5927
F0.9337784572911676
sI5929
F0.5461521160791493
sI5935
F0.07280531103994244
sI5940
F0.018948012391876976
sI5941
F0.6648239953611341
sI5943
F0.3505223814326017
sI5945
F0.03090843834292669
sI5947
F0.10236288415531988
sI5949
F0.20687263510731116
sI5951
F0.004396555570033374
sI5954
F0.8861506534165104
sI5955
F0.22135353271810682
sI5956
F0.14414861357823527
sI5959
F0.013790791321263686
sI5961
F0.24109013643846966
sI5962
F0.9579371640542671
sI5971
F0.22862782950759916
sI5977
F0.03261266688466922
sI5979
F0.15002372334366423
sI5980
F8.227522786606075e-43
sI6025
F0.5644574848076951
sI6031
F0.294320563194686
sI6033
F0.024103205446001218
sI6034
F2.5462949704181275e-60
sI6076
F0.39007691107535547
sI6078
F0.6527582128959681
sI6079
F0.6447497086858454
sI6084
F0.5209198512336016
sI6085
F0.6888762787837089
sI6087
F0.5298680060737317
sI6089
F0.6463701857755707
sI6091
F0.6061543464240718
sI6097
F0.9523154155118132
sI6102
F0.13483072765503948
sI6103
F0.4192388228814687
sI6105
F0.8012722202859672
sI6107
F0.3724747713922666
sI6109
F0.14400306345045852
sI6111
F0.6648638144336299
sI6113
F0.7784805579080966
sI6116
F0.9039330549494907
sI6117
F0.0034667147910150036
sI6118
F1.0
sI6121
F0.6031125062549153
sI6123
F0.8669755078688117
sI6124
F1.0
sI6133
F0.0828136226729208
sI6139
F0.14719874079451478
sI6141
F0.03888220219042113
sI6142
F7.136238463529831e-31
sI6156
F0.12408053467647631
sI6157
F0.2060245998030032
sI6159
F0.7898475672855807
sI6161
F0.28289096255800444
sI6163
F0.28699651595485914
sI6165
F0.9190374151185468
sI6167
F0.6219080710858284
sI6170
F1.0
sI6171
F0.7342844754481634
sI6172
F0.9993760915397869
sI6175
F6.618022816035891e-05
sI6177
F0.15494604365711223
sI6178
F0.10615153968016008
sI6183
F6.12360413832179e-134
sI6188
F5.521397077432485e-48
sI6190
F3.138550867693356e-39
sI6194
F2.2615642429163465e-50
sI6198
F7.846377169233389e-39
sI6202
F2.156795733372064e-46
sI6204
F1.2554203470773422e-39
sI6211
F0.044953705940516106
sI6213
F0.981095197441083
sI6214
F0.3773447053143989
sI6219
F0.6396521229279472
sI6220
F0.6539284070906677
sI6222
F1.0
sI6224
F1.0
sI6226
F4.698898784020483e-86
sI6232
F2.7197714595244024e-89
sI6241
F0.430412478679631
sI6247
F0.6000025136384254
sI6249
F0.007102852195689634
sI6250
F5.142201741628796e-42
sI6265
F1.0
sI6267
F0.7027548275355376
sI6268
F1.0
sI6273
F0.014954241669517386
sI6274
F1.0
sI6276
F0.6192983087562131
sI6278
F1.2391435560211437e-75
sI6280
F1.0
sI6286
F1.0
sI6349
F0.006096754306817352
sI6355
F0.09217530058612747
sI6357
F0.03664677082488417
sI6358
F8.034690221294992e-41
sI6403
F0.0028268042905847486
sI6409
F0.011542868582161768
sI6411
F0.01810739691655728
sI6412
F2.208558830972994e-48
sI6427
F0.1992415017619394
sI6429
F0.3701278132353912
sI6430
F0.15954354678552365
sI6435
F0.04100077032604693
sI6436
F0.9601590553172817
sI6438
F0.9543009327605768
sI6440
F2.657757689036731e-87
sI6442
F2.2013095049793693e-85
sI6448
F2.5610744633874443e-79
sI6561
F0.28215953167819846
sI6563
F0.33493183712251234
sI6566
F0.2823463357912076
sI6567
F0.1593835095237287
sI6568
F0.3967883869482305
sI6572
F0.2918948089550184
sI6576
F0.13876374052022747
sI6578
F0.03445887547271586
sI6579
F0.4060009790483533
sI6580
F0.37494463889736895
sI6582
F0.37031879866471956
sI6584
F0.12252246420626661
sI6586
F0.45443265898988733
sI6590
F0.38285214958990804
sI6594
F0.5871405628274856
sI6596
F0.34639780774461965
sI6605
F0.3576247309704909
sI6606
F0.33583242193277124
sI6608
F0.8038268142576017
sI6611
F0.1899843872352462
sI6612
F0.7498777171140756
sI6613
F0.43894112110299194
sI6615
F0.28967550383942287
sI6616
F0.3281427164247258
sI6618
F0.3376685969872136
sI6620
F0.16790863599483324
sI6622
F0.29156005629414217
sI6624
F0.5954130685661646
sI6626
F0.22944985563551606
sI6629
F0.8617539490209092
sI6630
F0.023421610363215842
sI6631
F0.4002599955959224
sI6634
F0.264667192357032
sI6636
F0.154124976026653
sI6637
F0.7539223291306213
sI6644
F0.3291133895565367
sI6648
F0.37894813861705834
sI6650
F0.23464280020573197
sI6659
F0.06131758825840944
sI6660
F0.14522903013433572
sI6662
F0.36639184752357723
sI6665
F0.024558525675822396
sI6666
F0.31395295866532624
sI6667
F2.961193260766487e-150
sI6677
F0.4939823977175014
sI6689
F0.3220091120336761
sI6693
F0.8240291240131923
sI6695
F1.0
sI6696
F0.14276210647234824
sI6698
F0.11876455958943921
sI6701
F0.11697025435948616
sI6702
F0.12422091484219866
sI6703
F2.6815615859885555e-103
sI6707
F0.21208457454998553
sI6711
F0.4287095775293792
sI6713
F0.14612765063184266
sI6714
F0.141586349559448
sI6715
F2.392032866531948e-132
sI6717
F0.023638593623265265
sI6719
F0.006049903607979955
sI6723
F0.26621933186232055
sI6724
F0.6360964094196084
sI6726
F0.32121967623251785
sI6728
F0.08406874583558306
sI6730
F0.39108844834799383
sI6732
F0.2082529087454064
sI6734
F0.05342018487326251
sI6737
F0.08961433713264416
sI6738
F0.32684478786516347
sI6739
F0.283849739582584
sI6742
F0.36636141416059864
sI6744
F0.3898769126001152
sI6745
F0.39093946140525804
sI6750
F0.7227536763372356
sI6752
F0.025512027398125386
sI6755
F0.14794491739059054
sI6756
F0.678684986584456
sI6757
F0.803621975735394
sI6761
F0.05047354341048995
sI6765
F0.2196360633258574
sI6767
F0.08108771480559969
sI6768
F0.7566514623907387
sI6769
F0.8864288948064876
sI6771
F0.8779536703882186
sI6773
F0.18984816295203666
sI6775
F0.9676355139824141
sI6778
F0.952679564603659
sI6780
F0.40452664797357546
sI6781
F0.5218633382169844
sI6786
F0.23486064615595564
sI6787
F0.9059089531766975
sI6789
F0.748142592836506
sI6791
F0.3112777472994342
sI6793
F0.23405301738194506
sI6799
F0.6740522730323063
sI6806
F0.4966921619863153
sI6810
F0.5226711698863048
sI6812
F0.6322757548416417
sI6821
F4.091738259870229e-100
sI6822
F0.514668526560578
sI6824
F0.45146562938092916
sI6827
F0.8063568558400076
sI6828
F0.35352671601221103
sI6829
F0.47187611139325225
sI6839
F0.28230396506838296
sI6851
F0.4071369766604921
sI6855
F0.8709467825623624
sI6857
F1.0
sI6858
F0.40300150675723445
sI6860
F0.2426401973498532
sI6863
F0.3065399507696929
sI6864
F0.4487223360778088
sI6865
F0.35364544966945277
sI6869
F1.2366520073655415e-115
sI6873
F3.810728210834995e-94
sI6876
F0.44429050311838447
sI6877
F0.27926352960748824
sI6879
F0.2289817518859413
sI6881
F0.227385558480227
sI6883
F1.8427367130031066e-33
sI6893
F0.9497056673653513
sI6905
F0.5362743076055001
sI6909
F0.9637856953386297
sI6911
F1.0
sI6941
F0.8552231014547134
sI6945
F0.6740912797329878
sI6947
F0.9368362092209787
sI6956
F4.1718496795330606e-63
sI6957
F0.698484669684895
sI6959
F0.9625249795388013
sI6962
F0.9990166569205179
sI6963
F0.5668814567113266
sI6964
F3.7053468555941432e-53
sI6966
F0.5294772218655648
sI6968
F0.023513192827630224
sI6971
F0.30033505163856605
sI6972
F0.1461166833760669
sI6973
F0.4455620080630129
sI6977
F1.723641332219404e-143
sI6981
F4.851619038439812e-153
sI6984
F0.4713359956736819
sI6985
F0.4613066367109431
sI6987
F0.7748315525249627
sI6989
F0.6537172103335247
sI6991
F0.7009558789750897
sI6995
F0.25219696968539557
sI6999
F0.7862221061541312
sI7001
F0.118447356602249
sI7010
F1.5541351137805946e-57
sI7011
F0.7816925308811022
sI7013
F0.6205069697474485
sI7016
F0.09855639271585534
sI7017
F1.0
sI7018
F1.0
sI7020
F0.00038815257780248805
sI7021
F0.1615924181073719
sI7023
F0.16901254530047255
sI7025
F0.0038623157603781214
sI7027
F0.45499322069994874
sI7029
F2.2277542078233745e-126
sI7034
F1.5541351137805946e-57
sI7036
F2.734063405978787e-66
sI7039
F0.617324269433004
sI7041
F0.10867122977363425
sI7042
F0.7431017253343626
sI7047
F0.1634977803954795
sI7048
F0.5114001755671185
sI7050
F0.14095400296843663
sI7052
F0.09390926751655829
sI7054
F0.11449494564522679
sI7056
F0.5406850949115032
sI7058
F0.13285082366701378
sI7061
F0.7531793697053724
sI7062
F0.2163012353940263
sI7063
F0.18689155478827923
sI7066
F0.008425039699436898
sI7068
F0.08086141130213016
sI7069
F0.5477603958934478
sI7074
F0.17107137894201127
sI7076
F0.14835842609389904
sI7079
F7.539570922642796e-25
sI7080
F0.6266867638363907
sI7081
F0.04947234729356148
sI7085
F2.4918133297877894e-31
sI7089
F0.09676058573937955
sI7091
F1.2437042792809312e-33
sI7092
F0.19335192586782093
sI7093
F0.012535565257499208
sI7095
F0.11985325627046375
sI7097
F5.613732894673928e-25
sI7099
F1.984295285495826e-28
sI7102
F0.7223835444274176
sI7104
F0.5116973399722683
sI7105
F0.7363805796581904
sI7110
F0.5707246882740127
sI7111
F0.21571659445291075
sI7113
F0.7694473120740203
sI7115
F0.8911367563228293
sI7117
F0.47343726132690495
sI7123
F0.5668266912163722
sI7128
F0.13025447377437668
sI7130
F0.09061066815082351
sI7133
F0.002331042430079884
sI7134
F0.06570231266456547
sI7135
F1.8869812124107983e-112
sI7139
F0.02004623523298186
sI7143
F1.2935185171688262e-37
sI7145
F1.902835429021674e-44
sI7146
F0.010555164077726165
sI7147
F1.8951636868905517e-151
sI7149
F3.574564915271267e-33
sI7151
F7.8005988091846e-40
sI7157
F0.10475830278197684
sI7161
F0.7574778176053973
sI7163
F0.5614227164962312
sI7172
F1.449526261917515e-51
sI7173
F0.24276789350249478
sI7175
F0.09526417617026584
sI7178
F3.5517842155248004e-58
sI7179
F0.8724256824528337
sI7180
F2.3714219875802523e-54
sI7182
F0.1267193896431607
sI7183
F4.49891379454326e-108
sI7185
F0.002180868795979574
sI7187
F0.0002748038819980021
sI7191
F0.10175148894206357
sI7193
F0.4638230075579582
sI7196
F0.7369480975410345
sI7197
F9.832827750186899e-37
sI7198
F5.265614583427888e-44
sI7203
F3.5072850004879733e-32
sI7204
F8.424983333484623e-45
sI7210
F0.2643158387652169
sI7212
F0.6982248857530323
sI7213
F0.37195093887104547
sI7218
F0.3251242054641563
sI7219
F0.6363717212699775
sI7221
F0.8522399068801245
sI7223
F0.007374893260626663
sI7225
F0.40309592518791504
sI7231
F0.6395936842018479
sI7236
F0.221573219974092
sI7237
F0.11557566529877977
sI7239
F0.18840792501085032
sI7241
F2.2594693806135837e-29
sI7243
F0.029370528801256443
sI7245
F0.2314906226822544
sI7247
F6.985850478000979e-38
sI7250
F8.058049374425077e-55
sI7251
F0.2429136865691453
sI7252
F0.28517408844629166
sI7255
F0.12264502100812288
sI7257
F0.4057660792398873
sI7258
F0.8439370926846358
sI7267
F1.0
sI7273
F1.0
sI7275
F1.0
sI7292
F0.5241928623295266
sI7296
F0.4287186762622683
sI7298
F0.7293407193115158
sI7307
F0.09106922932445953
sI7308
F0.19424093334522302
sI7310
F0.6817128052589205
sI7313
F3.7238705169488605e-29
sI7314
F0.23136697476544044
sI7315
F0.0005065187566127053
sI7325
F0.7860222273197011
sI7337
F0.88832577226603
sI7341
F0.8752558145184683
sI7343
F1.0
sI7344
F0.3119278646085704
sI7346
F0.02976380107432114
sI7349
F0.06823697514595058
sI7350
F0.295916876237743
sI7351
F0.2783723728972658
sI7355
F6.948133328131869e-06
sI7359
F0.47071151391369337
sI7361
F1.684625010499438e-27
sI7362
F0.05098756954366525
sI7363
F0.08294431579136602
sI7365
F0.021245947190143805
sI7367
F3.0459968359986195e-31
sI7369
F1.52023367482308e-32
sI7379
F0.849719098702922
sI7391
F0.33455346844724876
sI7395
F0.7476196262230715
sI7397
F1.0
sI7427
F0.058094558497662624
sI7431
F0.3714476057023486
sI7433
F0.006052244239987044
sI7442
F5.653910607290866e-50
sI7443
F0.06193619183546195
sI7445
F0.23759622645393774
sI7448
F5.216318360443551e-55
sI7449
F0.645152692053724
sI7450
F1.2554203470773422e-39
sI7452
F0.3011990844042478
sI7454
F0.11121432705479195
sI7457
F0.009206484671890816
sI7458
F0.2514287606877025
sI7459
F0.1617770038006132
sI7463
F0.41960293467452253
sI7467
F0.8108806868696838
sI7469
F0.5425517696674487
sI7470
F0.06742695531469034
sI7471
F0.2002381597051475
sI7473
F0.09152218861148419
sI7475
F1.2214433838508556e-39
sI7477
F0.08655106681460153
sI7481
F0.4454279640351364
sI7485
F0.6451572673376829
sI7487
F0.49752788348633004
sI7496
F0.36110833547705967
sI7497
F0.307623228114701
sI7499
F0.0006544141892899735
sI7502
F1.2360094440148527e-61
sI7503
F0.9385249115947641
sI7504
F1.447401115466462e-51
sI7506
F0.0019154090647955533
sI7507
F0.488099936052542
sI7509
F0.3687210088932971
sI7511
F0.006307535129097635
sI7513
F0.2034379133916907
sI7515
F0.9134773968533165
sI7517
F0.5962161876899756
sI7520
F0.9936936408096826
sI7521
F0.6061549694272981
sI7522
F1.0
sI7525
F0.009880355870096544
sI7527
F0.006509330172155204
sI7528
F0.3961031711245243
sI7541
F0.7611060533906995
sI7553
F0.413535567002571
sI7557
F0.15680591843554795
sI7559
F1.0
sI7589
F0.11192104650827223
sI7593
F0.5255051932537792
sI7595
F0.014908952743429502
sI7604
F1.1692013098647274e-33
sI7605
F0.0844756278148196
sI7607
F0.22531393216005596
sI7610
F1.4549143461061607e-35
sI7611
F0.5746440773039313
sI7612
F9.36737710269171e-45
sI7676
F0.9840776583763159
sI7688
F0.8653419475254464
sI7692
F0.9577259189441606
sI7694
F1.0
sI7697
F0.2009606615111204
sI7701
F0.27822427888209034
sI7703
F0.6155189201809563
sI7712
F5.39198933343016e-46
sI7713
F0.2907530187862423
sI7715
F9.025004637547908e-05
sI7718
F3.58762417603971e-62
sI7719
F0.7111408120090039
sI7720
F0.9015124087849468
sI7730
F1.0
sI7742
F0.010068510860314987
sI7746
F1.0
sI7748
F1.0
sI7749
F8.615852648965298e-05
sI7751
F2.4595927462932756e-38
sI7754
F5.705873038447231e-68
sI7755
F5.124514071992198e-05
sI7756
F0.7435524797771971
sI7760
F2.2615642429163465e-50
sI7764
F2.1062458333711557e-44
sI7767
F3.4172678595911392e-40
sI7768
F1.679447541710393e-55
sI7770
F4.4103708771003666e-55
sI7772
F1.6101651804775175e-100
sI7774
F1.9059784808452933e-89
sI7776
F0.11886585285018199
sI7778
F0.030233439776887916
sI7781
F0.26480575560901326
sI7782
F0.011946675264087835
sI7783
F0.13523280408507496
sI7787
F0.15372522789371093
sI7791
F0.26053700541188857
sI7793
F6.421604226542464e-34
sI7794
F0.14877031084024805
sI7795
F0.2879643863110124
sI7797
F0.017387701154097285
sI7799
F3.305092835205527e-33
sI7801
F2.80298891118949e-27
sI7805
F0.06134165117598554
sI7809
F0.44395125446613265
sI7811
F0.4768062911201578
sI7820
F3.180793755887769e-41
sI7821
F0.20158538388815045
sI7823
F0.012269972138795677
sI7826
F2.0011601334285806e-40
sI7827
F0.3572893523507765
sI7828
F6.968982874540848e-29
sI7830
F0.2134991082281199
sI7831
F0.867004387742842
sI7833
F0.1518618041379581
sI7835
F0.036787936193862426
sI7837
F0.1569048216532926
sI7839
F0.4696124094305268
sI7841
F2.967137765618765e-06
sI7844
F0.06130580060582459
sI7845
F0.17826679677085394
sI7846
F0.7153575709515467
sI7849
F0.11200280631270762
sI7851
F0.013026237400536048
sI7852
F0.3970610592532704
sI7859
F0.09863873555182631
sI7863
F0.0060746399892727026
sI7865
F0.00039521680586519596
sI7874
F5.653910607290866e-50
sI7875
F0.002769441512930862
sI7877
F0.0034909078119667314
sI7880
F2.9298278135209425e-56
sI7881
F0.0019112120741400654
sI7882
F1.34799733335754e-45
sI7892
F0.39852533192397377
sI7904
F0.0006529916642942402
sI7908
F0.39846570210618926
sI7910
F1.0
sI7911
F2.2976297077974092e-38
sI7913
F5.301190136498073e-47
sI7916
F3.184210251463191e-60
sI7917
F3.7149351851922155e-37
sI7918
F2.1062458333711557e-44
sI7922
F1.4134776518227165e-49
sI7926
F1.91561942608237e-36
sI7929
F5.3472245914282855e-46
sI7930
F8.424983333484623e-45
sI7932
F9.835216826209587e-58
sI7934
F1.177635674859645e-106
sI7938
F0.31336492891863926
sI7939
F0.1601993053979852
sI7941
F0.8923102070394383
sI7943
F0.08242848104216927
sI7945
F0.003860690172078897
sI7947
F0.9901853850823068
sI7949
F0.21924059071728802
sI7952
F0.9037795000132128
sI7953
F0.2942715204751445
sI7954
F1.0
sI7957
F0.2067422501325281
sI7959
F0.08324314608365489
sI7960
F0.13848944332542437
sI7965
F0.3064844816971784
sI7967
F3.8487763867908263e-38
sI7970
F5.276965683044558e-50
sI7971
F0.07044032221997519
sI7972
F8.627182933488258e-47
sI7976
F3.257628508040007e-56
sI7980
F0.946162624597936
sI7982
F6.22579024722761e-89
sI7983
F3.432988861967034e-37
sI7984
F1.34799733335754e-45
sI7986
F1.3588780263621011e-61
sI7988
F1.7445379156843692e-102
sI7993
F1.0
sI7995
F1.0
sI8001
F1.0
sI8006
F1.0
sI8008
F1.0
sI8014
F1.0
sI8019
F0.3127864904862435
sI8020
F0.25657248551138706
sI8022
F0.3301525392184805
sI8024
F0.16462234079598734
sI8026
F0.3369748745268514
sI8028
F0.2792632598733488
sI8030
F0.13058675031003042
sI8033
F0.8831576780960425
sI8034
F0.0761345032486826
sI8035
F0.10576976859963068
sI8038
F0.4031832104598568
sI8040
F0.6633494467208368
sI8041
F0.8356961262233471
sI8046
F0.49936451958058214
sI8048
F0.1881473969708697
sI8051
F0.19187109570400657
sI8052
F0.05325323058812853
sI8053
F0.5019811494351334
sI8057
F9.674302762708122e-32
sI8061
F0.309463884590387
sI8063
F3.76152585741952e-32
sI8064
F0.5668346110100541
sI8065
F0.5424668305403915
sI8067
F0.2905947889879879
sI8069
F0.05346675238823072
sI8071
F0.04187489617186624
sI8074
F0.24145992278127143
sI8076
F0.37163743189242143
sI8077
F0.48386799733146946
sI8082
F0.654427263695456
sI8083
F0.3394644138785561
sI8085
F0.7148133672714521
sI8087
F1.0
sI8089
F3.131174784020269e-30
sI8095
F0.08100724736124401
sI8100
F0.3143979422125511
sI8102
F0.3303826235637915
sI8105
F0.845123476538615
sI8106
F0.17478922695261762
sI8107
F1.5309010345804471e-133
sI8111
F0.6539594441938406
sI8115
F0.03179679590237231
sI8117
F0.0148267341534624
sI8118
F0.069792004338539
sI8119
F7.229475734293178e-148
sI8121
F0.08341134219795525
sI8123
F0.002460696536952447
sI8129
F0.1590818612541564
sI8133
F0.00021126129009103103
sI8135
F0.0005743275423833681
sI8144
F6.302401723911881e-61
sI8145
F0.03731019002466172
sI8147
F0.012247393049407706
sI8150
F1.174355452447501e-69
sI8151
F0.00016911766013664922
sI8152
F2.156795733372064e-46
sI8154
F0.38499521717114105
sI8155
F4.518422333933236e-147
sI8157
F0.7314822107071886
sI8159
F1.0
sI8163
F0.7738612975499982
sI8165
F1.0
sI8169
F0.5529421273297411
sI8170
F1.91561942608237e-36
sI8175
F0.00593434739430973
sI8176
F3.533694129556791e-49
sI8182
F0.21818529336291914
sI8184
F0.3396113985703855
sI8185
F0.7808857399713746
sI8190
F0.054179050933362116
sI8191
F0.1440181014292411
sI8193
F0.10176912890891304
sI8195
F0.08802452635081578
sI8197
F0.0007037290812990382
sI8203
F1.0
sI8208
F0.6927971352921103
sI8209
F0.7538485603826407
sI8211
F0.67751082761592
sI8213
F0.29804369287759364
sI8215
F0.6481657797138144
sI8217
F0.003935473204052498
sI8219
F5.538345075743444e-41
sI8222
F1.137706314163456e-60
sI8223
F0.5103640897350152
sI8224
F0.8400753001768251
sI8227
F1.0
sI8229
F1.0
sI8239
F0.2784410401932812
sI8245
F0.5506966712199888
sI8247
F0.0009894316577458233
sI8248
F3.2138760885179975e-41
sI8262
F0.38887323831828613
sI8264
F0.6009818683650063
sI8267
F0.6189264249236037
sI8268
F0.4065958260528244
sI8269
F0.4315900774827869
sI8273
F6.421064332944912e-138
sI8277
F3.384606560206107e-84
sI8280
F0.4198220129579578
sI8281
F0.45550337160619214
sI8283
F0.7990947388860273
sI8285
F0.8361087329710527
sI8287
F0.10070792036484244
sI8291
F0.2933109333085451
sI8295
F0.2172033766706848
sI8297
F0.33919381991720277
sI8306
F3.0649910817317916e-37
sI8307
F0.8482855064044126
sI8309
F0.6375589065727514
sI8312
F0.757081316818023
sI8313
F0.8944032504587971
sI8314
F0.8963224543700291
sI8316
F0.10475791753641078
sI8317
F0.28943834431400584
sI8319
F0.9166157033582735
sI8321
F1.0
sI8323
F4.382165612056889e-23
sI8325
F1.392346379889609e-125
sI8332
F1.0889035741470071e-27
sI8335
F0.13747660874994413
sI8337
F0.6730687990119605
sI8338
F0.6484153947142938
sI8345
F0.4376861765761795
sI8349
F0.33474404210904957
sI8351
F0.6010516498784654
sI8360
F6.365737426045318e-60
sI8361
F0.16178174169705295
sI8363
F0.44207235035965353
sI8366
F0.6615171733898959
sI8367
F0.07236684718513782
sI8368
F3.533694129556791e-49
sI8378
F1.5177100720513615e-55
sI8390
F3.0061345059505334e-74
sI8394
F2.4283361152821786e-56
sI8397
F0.9478388879342858
sI8399
F1.0
sI8403
F0.27050965135001076
sI8404
F1.285550435407199e-41
sI8412
F4.1718496795330606e-63
sI8415
F0.06483672275636614
sI8416
F2.6699837949011588e-64
sI8418
F0.9528945655686747
sI8420
F1.0
sI8424
F0.7704353707514667
sI8425
F0.7727757979548462
sI8427
F0.7826434908721897
sI8429
F0.14543283306446297
sI8431
F0.20379078146600937
sI8433
F3.649952494097819e-129
sI8438
F4.1718496795330606e-63
sI8440
F3.9785858912783238e-59
sI8443
F1.0
sI8445
F1.0
sI8451
F0.898126976053869
sI8453
F0.10484749651955547
sI8456
F0.7430961133127512
sI8457
F0.19933045268137234
sI8458
F1.0
sI8462
F3.794275180128404e-55
sI8466
F9.713344461128715e-57
sI8469
F1.0
sI8474
F1.0
sI8476
F1.0
sI8479
F0.17124256386084097
sI8481
F0.5770694289246753
sI8482
F0.8654168857444845
sI8488
F4.809815209520854e-75
sI8490
F1.4134776518227165e-49
sI8500
F1.0
sI8506
F0.015537702651649051
sI8508
F0.10301575863085208
sI8509
F0.24012589789901395
sI8514
F0.04712966467059369
sI8515
F0.12356969432340716
sI8517
F0.2879783314239215
sI8519
F0.12854740733586342
sI8521
F1.3909912791153532e-35
sI8527
F0.47060158353718595
sI8532
F0.01851708972306646
sI8533
F0.19833527795362887
sI8535
F0.06555700817069995
sI8537
F5.1621904575438055e-28
sI8539
F5.806799583169027e-27
sI8541
F2.526060665810744e-28
sI8543
F6.262711580682788e-35
sI8546
F1.4227314669392386e-39
sI8547
F1.2045586451165377e-28
sI8548
F4.3671876239567615e-37
sI8551
F0.749576580482698
sI8553
F0.0797814221267203
sI8554
F0.7180923517726789
sI8563
F0.08302173961070802
sI8569
F0.2058493955336584
sI8571
F0.1802282523910065
sI8572
F1.1692013098647274e-33
sI8586
F0.03480809876815377
sI8587
F1.027370293271186e-138
sI8589
F0.0024888154224170025
sI8591
F0.0016259974903909315
sI8595
F0.04038363907354323
sI8597
F0.11269944425751241
sI8600
F0.25693479063170876
sI8601
F5.94616131654785e-38
sI8602
F6.2165404551223794e-58
sI8607
F1.0644723712409484e-37
sI8608
F5.265614583427888e-44
sI8613
F5.6706711614372046e-39
sI8615
F1.1006024925169346e-43
sI8618
F1.2891347839549322e-49
sI8619
F2.9283427795505794e-39
sI8620
F9.046256971665386e-51
sI8624
F8.274362620303056e-57
sI8628
F2.451312799363532e-49
sI8630
F1.8877246628514203e-112
sI8631
F1.0002075003955524e-51
sI8632
F6.999202319305696e-68
sI8634
F1.1059709361872967e-59
sI8636
F3.436713370330786e-109
sI8643
F0.0003493432105216291
sI8644
F3.0649910817317916e-37
sI8649
F0.12309452577072863
sI8650
F6.835158514946968e-66
sI8652
F0.10583268287863984
sI8654
F1.0
sI8671
F0.712515807168565
sI8677
F3.881135642059608e-05
sI8679
F0.08387779160427047
sI8680
F1.668739871813224e-63
sI8695
F0.300317165388293
sI8697
F0.19500731160854612
sI8698
F0.9971384240791994
sI8703
F8.106695485221213e-40
sI8704
F3.5926497144116833e-51
sI8706
F4.9367022629998784e-54
sI8708
F4.052029620228846e-96
sI8710
F8.872738397777104e-87
sI8716
F1.0
sI8750
F0.3169628180957942
sI8754
F0.06869076637514107
sI8756
F0.5218998980269398
sI8765
F1.7891244872752438e-05
sI8766
F0.418251596192859
sI8768
F0.17044271481252848
sI8771
F0.19431781495469888
sI8772
F0.1483931354190697
sI8773
F0.15148840885441028
sI8783
F0.8077093554009991
sI8795
F0.8799063524779464
sI8799
F0.9184667494805067
sI8801
F1.0
sI8802
F0.1512566920094292
sI8804
F0.002602057372898514
sI8807
F0.18516848602752353
sI8808
F0.0400445252132293
sI8809
F0.11137882639826346
sI8813
F0.611975325510948
sI8817
F0.2809338603055179
sI8819
F0.0095118653150086
sI8820
F0.025400068032717577
sI8821
F0.0012245304855409565
sI8823
F0.2396646084101406
sI8825
F0.22869372898484658
sI8827
F3.1080821917515155e-23
sI8837
F0.43111152912805295
sI8849
F0.8099101018751986
sI8853
F0.6111245865372407
sI8855
F1.0
sI8885
F0.6785063069759097
sI8889
F0.16047691736967654
sI8891
F0.6033855132166543
sI8900
F0.6063314001119423
sI8901
F0.3874824638416765
sI8903
F0.8462320818887688
sI8906
F8.834235323891978e-49
sI8907
F0.0362055768305019
sI8908
F1.870722095783564e-34
sI8910
F0.4503788323384381
sI8912
F0.12906968343723216
sI8915
F0.5998656730867844
sI8916
F0.12758843170714568
sI8917
F0.18944539419085216
sI8921
F0.05557350600065383
sI8925
F0.025951244282242995
sI8927
F1.196800894221302e-37
sI8928
F0.27639931108701243
sI8929
F0.45008197667847893
sI8931
F0.8549352152015791
sI8933
F0.5625580856510193
sI8935
F0.20721853453934802
sI8939
F0.25364356338837035
sI8943
F0.2865662659553633
sI8945
F0.082075676928308
sI8954
F4.695381468773438e-67
sI8955
F0.17359264371331637
sI8957
F0.12909363139329894
sI8960
F0.9000891173678909
sI8961
F0.838219232380368
sI8962
F0.9034084663459628
sI8964
F0.1048113480370593
sI8965
F0.9901076570099566
sI8967
F0.8926632468438067
sI8969
F0.04541969590309057
sI8971
F0.0008485977242978758
sI8973
F0.3970482722083889
sI8975
F0.003507845414273453
sI8978
F1.0
sI8979
F0.03538827510586589
sI8980
F0.2580058436183693
sI8983
F0.9768772094598185
sI8985
F0.24352976096171125
sI8986
F1.0
sI8999
F0.6930950855229622
sI9011
F0.9862205542873622
sI9015
F0.7114518775695455
sI9017
F1.0
sI9047
F0.38343428700538534
sI9051
F0.009657046141249208
sI9053
F0.2401589408901123
sI9062
F2.9230032746618187e-33
sI9063
F0.4694032758955621
sI9065
F0.8182636275623671
sI9068
F0.9518220863636666
sI9069
F0.5641985895083867
sI9070
F5.25662128658549e-41
sI9134
F1.0
sI9146
F1.0
sI9150
F0.3840264731902011
sI9152
F1.0
sI9155
F0.14522913434772863
sI9159
F0.043593866317078
sI9161
F0.01550225554889063
sI9170
F1.2554203470773422e-39
sI9171
F0.8294010806803984
sI9173
F0.2032264303198632
sI9176
F0.8883929192872814
sI9177
F0.0539659940727389
sI9178
F0.8626744882905838
sI9188
F0.6424856527862951
sI9200
F1.0
sI9204
F1.0
sI9206
F1.0
sI9207
F0.12819348364805258
sI9209
F0.0016874378361689127
sI9212
F0.6609286221556306
sI9213
F1.0381643342016073e-35
sI9214
F2.4352771154067328e-55
sI9218
F3.138550867693356e-39
sI9222
F5.0216813883093696e-40
sI9225
F0.2813282299582099
sI9226
F0.9529934482365507
sI9228
F0.9784959741022591
sI9230
F1.6477163808807596e-61
sI9232
F3.475780348902661e-86
sI9234
F0.20146970992494515
sI9236
F0.1119293560678499
sI9239
F0.028217515567461035
sI9240
F0.07961949262223252
sI9241
F0.09571874284414733
sI9245
F0.36897329490443626
sI9249
F0.11389410017986806
sI9251
F1.0892586429462495e-26
sI9252
F0.1603342121096413
sI9253
F0.13533256744287975
sI9255
F0.13492306881133168
sI9257
F1.0581058444952517e-23
sI9259
F1.5561575875946102e-29
sI9263
F0.12202913753115821
sI9267
F0.1492698432190702
sI9269
F0.09225999744588492
sI9278
F3.989124352726661e-37
sI9279
F0.23810802621057078
sI9281
F0.19499449907759375
sI9284
F5.929691267519435e-30
sI9285
F0.24595881164316297
sI9286
F9.66651726907319e-42
sI9288
F0.5612903641556418
sI9289
F0.9377368454223892
sI9291
F0.5982287188824084
sI9293
F0.04837811386693036
sI9295
F0.18363044675600543
sI9297
F0.7975371246808952
sI9299
F0.5146261161152014
sI9302
F1.0
sI9303
F0.173958525408375
sI9304
F0.2861528288944796
sI9307
F0.00012202146021491489
sI9309
F1.3367741322942366e-05
sI9310
F0.8814106329382289
sI9317
F0.38219575287654967
sI9321
F0.005875456636538269
sI9323
F0.001726995785402973
sI9332
F4.873712937718211e-44
sI9333
F0.027906565982304933
sI9335
F1.232044919431017e-08
sI9338
F8.034690221294992e-41
sI9339
F0.0008471414349795667
sI9340
F5.653910607290866e-50
sI9350
F0.8860900325398614
sI9362
F0.6255368260793354
sI9366
F0.9820886809936802
sI9368
F1.0
sI9369
F0.2077078706787527
sI9371
F0.3229625125531131
sI9374
F3.2138760885179975e-41
sI9375
F1.1532427097909254e-29
sI9376
F2.993155353253703e-35
sI9380
F0.30398590033401085
sI9384
F1.810601928678076e-57
sI9386
F3.492456190666061e-93
sI9387
F5.423596613963801e-35
sI9388
F3.138550867693356e-39
sI9390
F2.9230032746618187e-33
sI9396
F0.5997677495085709
sI9397
F0.33147603564678724
sI9399
F0.7484647517139096
sI9401
F0.1343149575824297
sI9403
F0.08591791808065213
sI9405
F0.7113476787466473
sI9407
F0.01454231103657094
sI9410
F0.12058081779613802
sI9411
F0.01793830120036069
sI9412
F0.3579762195607311
sI9415
F0.5661719962989495
sI9417
F0.22032091635891132
sI9418
F1.0
sI9423
F0.03617314713595408
sI9425
F2.9100927559170484e-26
sI9428
F2.5547660701131487e-35
sI9429
F5.3120650501223716e-30
sI9430
F2.236137126302284e-45
sI9434
F5.832309181973457e-57
sI9438
F1.2344236843867737e-44
sI9440
F1.5982128735192085e-99
sI9441
F0.03280114452709007
sI9442
F0.8626608045780644
sI9444
F0.1431750182190073
sI9446
F2.953303640420454e-69
sI9448
F4.0787153274358804e-80
sI9451
F1.0
sI9453
F1.0
sI9459
F1.0
sI9464
F1.0
sI9466
F1.0
sI9472
F1.0
sI9485
F1.2663316555423147e-117
sI9497
F5.569385519558436e-126
sI9501
F3.0191699398572776e-113
sI9533
F2.497398840252824e-97
sI9537
F2.4388660549343975e-95
sI9548
F3.29100911464243e-43
sI9549
F1.0229345649675571e-99
sI9554
F1.3803492693581213e-47
sI9556
F2.008672555323748e-40
sI9620
F1.668739871813224e-63
sI9632
F4.809815209520854e-75
sI9636
F6.999202319305696e-68
sI9641
F9.797766621314864e-135
sI9645
F9.124881235244547e-129
sI9656
F4.6970851655477075e-73
sI9657
F5.70305077202784e-128
sI9662
F2.208558830972994e-48
sI9664
F6.999202319305696e-68
sI9674
F4.1718496795330606e-63
sI9686
F2.6699837949011588e-64
sI9690
F4.074071952669004e-61
sI9693
F2.6300679507742363e-140
sI9698
F1.5541351137805946e-57
sI9700
F1.042962419883265e-62
sI9704
F4.271974071841854e-65
sI9708
F2.5462949704181275e-60
sI9712
F2.6699837949011588e-64
sI9714
F5.92855496895063e-54
sI9782
F3.6185027886661547e-51
sI9794
F1.4134776518227165e-49
sI9798
F8.034690221294992e-41
sI9890
F9.713344461128715e-57
sI9902
F2.5462949704181275e-60
sI9906
F1.042962419883265e-62
sI9938
F2.607406049708163e-62
sI9942
F8.627182933488258e-47
sI9953
F7.515336264876332e-74
sI9954
F8.834235323891978e-49
sI9959
F5.642151348268663e-243
sI9961
F2.0615033583908614e-274
sI9965
F3.902185687895036e-96
sI9969
F5.545339388241689e-87
sI9980
F8.424983333484623e-45
sI9981
F4.189939978107117e-102
sI9986
F8.424983333484623e-45
sI9988
F3.138550867693356e-39
sI9998
F7.482888383134257e-35
sI10010
F2.0568806966515186e-42
sI10014
F3.0649910817317916e-37
sI10017
F3.241809038188326e-119
sI10022
F1.2554203470773422e-39
sI10024
F9.046256971665386e-51
sI10028
F9.48568795032101e-55
sI10032
F2.1062458333711557e-44
sI10036
F1.4821387422376575e-53
sI10038
F3.3699933333938496e-45
sI10052
F4.4794894843556464e-69
sI10064
F5.678427533559491e-89
sI10068
F4.925250774549356e-77
sI10100
F1.5177100720513615e-55
sI10104
F5.92855496895063e-54
sI10115
F2.4388660549343975e-95
sI10116
F2.6699837949011588e-64
sI10121
F7.198262071269217e-109
sI10123
F8.263199609878187e-82
sI10125
F6.12360413832179e-134
sI10130
F6.518515124270407e-62
sI10132
F1.668739871813224e-63
sI10136
F1.0679935179604635e-64
sI10140
F2.734063405978787e-66
sI10144
F1.668739871813224e-63
sI10146
F6.518515124270407e-62
sI10154
F5.39198933343016e-46
sI10158
F5.142201741628796e-42
sI10169
F1.8749263821435848e-266
sI10170
F6.365737426045318e-60
sI10175
F3.697640307601353e-246
sI10177
F3.305279843951275e-82
sI10206
F0.37857987152626593
sI10208
F0.6168702728127161
sI10211
F0.5724426252870547
sI10212
F0.4518382895422921
sI10213
F0.47446047481988557
sI10217
F0.41355094244437635
sI10221
F0.021494146093964314
sI10223
F0.3969736039991411
sI10224
F0.4840954187496423
sI10225
F0.3272418526751384
sI10227
F0.5979527226609479
sI10229
F0.3427887184615265
sI10231
F0.07111888838266343
sI10235
F0.5399618650846195
sI10239
F0.817443679136314
sI10241
F0.262429914927757
sI10250
F3.861403270035072e-33
sI10251
F0.9629949612532258
sI10253
F0.48929629751100717
sI10256
F0.399999336622642
sI10257
F0.9982377399352768
sI10258
F0.10608072300981994
sI10260
F0.5591935463235181
sI10261
F0.38602782442503314
sI10263
F0.7916881732637212
sI10265
F1.0
sI10267
F1.0706052698526139e-32
sI10269
F0.7964076567388934
sI10271
F1.0
sI10275
F0.11189532199438287
sI10276
F4.763397332173903e-47
sI10279
F0.22518045410008442
sI10281
F0.20837007037066319
sI10282
F0.2883798346896445
sI10289
F0.7916000433574075
sI10293
F0.6652622380468195
sI10295
F0.6988621638842716
sI10304
F0.864606790421435
sI10305
F0.08706400834655213
sI10307
F0.0438568163042941
sI10310
F3.0061345059505334e-74
sI10311
F0.7685153790886903
sI10312
F1.042962419883265e-62
sI10322
F0.2569612992883702
sI10334
F0.2943885809179917
sI10338
F0.7036250933300026
sI10340
F1.0
sI10341
F0.4569335697803358
sI10343
F1.0
sI10347
F0.2646025479444342
sI10348
F9.713344461128715e-57
sI10356
F0.8949759425530466
sI10358
F1.0
sI10359
F0.02250596074212713
sI10360
F5.521397077432485e-48
sI10362
F1.6296287810676014e-61
sI10368
F0.27122855960385134
sI10369
F0.6303280841202407
sI10371
F0.8519673509314729
sI10373
F0.6859650001630088
sI10375
F0.7678917116392934
sI10377
F0.029614694387214133
sI10379
F0.21670303333308943
sI10382
F0.29778732714907036
sI10383
F9.836719061003841e-37
sI10384
F1.6619423969613702e-53
sI10387
F1.0
sI10389
F1.0
sI10395
F0.5886646819994412
sI10397
F0.2786114246647541
sI10400
F0.3037695882191034
sI10401
F0.5015360967212632
sI10402
F0.38457293518011126
sI10406
F8.985278865662538e-64
sI10410
F2.14480203651706e-48
sI10412
F5.999148208368851e-98
sI10413
F1.0
sI10418
F1.0
sI10420
F1.0
sI10423
F0.46627497714579813
sI10425
F1.0
sI10426
F1.0
sI10431
F0.7880747054123045
sI10432
F0.7442447643525836
sI10434
F1.0
sI10436
F1.0
sI10438
F2.951636629954241e-94
sI10444
F1.0
sI10451
F0.9614007934252025
sI10455
F0.3478478061257702
sI10457
F0.9218994268570242
sI10466
F5.521397077432485e-48
sI10467
F0.9479376148745429
sI10469
F1.0
sI10472
F1.0
sI10473
F0.8032081433540965
sI10474
F0.25676737450154036
sI10484
F0.7421673856096236
sI10496
F1.0
sI10500
F1.0
sI10502
F1.0
sI10503
F0.5406661096599799
sI10505
F1.0
sI10509
F0.10497407306903506
sI10510
F4.531187520605552e-38
sI10518
F2.156795733372064e-46
sI10521
F0.7903189863776525
sI10522
F0.3969180141600699
sI10524
F1.0
sI10526
F1.0
sI10528
F8.120658163622005e-76
sI10538
F1.0
sI10550
F1.0
sI10554
F0.982094303079101
sI10556
F1.0
sI10590
F0.9843923618258702
sI10592
F1.0
sI10602
F0.025572279953535643
sI10604
F1.0
sI10608
F4.8569649411128185e-83
sI10609
F1.0913507908952791e-259
sI10611
F0.4872937030572144
sI10613
F0.29894903142900137
sI10616
F1.0
sI10617
F0.08572811593612989
sI10618
F0.9819602811691036
sI10622
F2.5462949704181275e-60
sI10626
F2.4283361152821786e-56
sI10629
F1.0
sI10634
F1.0
sI10636
F1.0
sI10640
F0.2487740529061377
sI10644
F0.29687270205004945
sI10646
F4.5871662443631495e-66
sI10655
F4.893786199427916e-231
sI10658
F1.0
sI10662
F1.0
sI10665
F0.4867334926212019
sI10666
F0.15320670491591826
sI10668
F1.0
sI10670
F1.0
sI10672
F2.343532698895102e-89
sI10674
F6.518515124270407e-62
sI10681
F3.298405373425379e-275
sI10684
F1.0
sI10686
F1.0
sI10692
F0.217683307838627
sI10693
F0.2395943097070597
sI10695
F0.34947111327847885
sI10697
F0.13900926386384055
sI10699
F1.9839797282328487e-26
sI10701
F0.5953016814252146
sI10703
F0.47635021847241654
sI10706
F0.0636060814239282
sI10707
F6.185027845070483e-24
sI10708
F1.8547416903407476e-39
sI10711
F0.04079990238289971
sI10713
F0.09240857749296943
sI10714
F0.6014558339105559
sI10719
F0.09802924700992999
sI10721
F3.528605152419893e-23
sI10724
F8.627770015439978e-39
sI10725
F4.756124837004196e-22
sI10726
F5.700543800147224e-34
sI10730
F5.5383149754078754e-39
sI10734
F4.3892564583649e-28
sI10736
F6.7659505898466e-83
sI10737
F0.2650433293171603
sI10738
F0.06239117650245407
sI10740
F0.1037814322551103
sI10742
F1.5569019867659327e-65
sI10744
F8.193512416193658e-80
sI10747
F0.0061498148653983935
sI10749
F0.6997818048764146
sI10750
F0.37603584231136
sI10755
F0.7129457386370314
sI10756
F0.7359636635576965
sI10758
F1.0
sI10760
F1.0
sI10762
F2.1669071217782186e-84
sI10768
F4.1694466941176517e-63
sI10773
F0.0683051633028998
sI10775
F0.08691805678426592
sI10778
F1.6296287810676014e-61
sI10779
F6.195910410728836e-31
sI10780
F2.2615642429163465e-50
sI10784
F0.35444525836134755
sI10788
F1.0415679191760317e-36
sI10790
F2.374162063445839e-85
sI10791
F7.153469200398061e-38
sI10792
F5.789604461865848e-52
sI10794
F1.34799733335754e-45
sI10802
F2.4009738955000808e-47
sI10806
F1.2366885287324629e-39
sI10808
F9.55243982310901e-90
sI10817
F0.0
sI10818
F3.14227222375522e-73
sI10820
F6.686370367773534e-101
sI10823
F5.153758395977153e-274
sI10824
F9.574981981624782e-95
sI10825
F4.365403163581117e-260
sI10827
F0.07156847329612247
sI10828
F2.208558830972994e-48
sI10830
F2.4866161820489522e-58
sI10836
F0.6226593705942188
sI10838
F1.0
sI10842
F5.3520172463916777e-92
sI10843
F3.626635061200048e-283
sI10849
F4.271974071841854e-65
sI10855
F0.7950478171230531
sI10857
F0.9115113599557139
sI10858
F1.0
sI10863
F0.7169027661018986
sI10864
F0.9811951858893293
sI10866
F0.34561476115346323
sI10868
F1.4198302281861725e-88
sI10870
F2.655069591319509e-91
sI10876
F1.0
sI10881
F0.4410884954861787
sI10882
F0.28824586536367935
sI10884
F0.3553906858050594
sI10886
F2.867270133872264e-69
sI10888
F2.076012920680254e-77
sI10890
F1.5723114136917848e-48
sI10892
F3.3223285535266713e-93
sI10895
F0.0
sI10896
F3.721552348597322e-92
sI10897
F0.0
sI10900
F1.0
sI10902
F1.0
sI10912
F1.0
sI10918
F1.0
sI10920
F1.0
sI10935
F0.3345070343614797
sI10936
F0.44203773354806325
sI10938
F0.21908283994078934
sI10940
F0.3588064072811541
sI10942
F0.05653837094402657
sI10944
F0.056426784745909925
sI10946
F0.04168408503045983
sI10949
F0.3613651316000665
sI10950
F0.22827022209576914
sI10951
F0.36902968741873826
sI10954
F0.04193088639141511
sI10956
F0.16730241908306698
sI10957
F0.24194609687187432
sI10962
F0.31451790540273017
sI10964
F0.44375623542639725
sI10967
F2.7690026731548535e-27
sI10968
F0.1977314295337428
sI10969
F0.2446830526255021
sI10973
F0.15624073341714648
sI10977
F0.24854233958687832
sI10979
F0.3948708521342709
sI10980
F0.1640086435873816
sI10981
F0.469357794644383
sI10983
F0.047160047719364814
sI10985
F6.4494354579421e-28
sI10987
F0.21494175273492588
sI10990
F0.042311481133332704
sI10992
F0.12421677805476483
sI10993
F0.02696887411240092
sI10998
F0.06064168470885429
sI10999
F0.5760758084598435
sI11001
F0.15290695628324597
sI11003
F0.602120836272214
sI11005
F0.0036502961893649403
sI11011
F3.1873424215182355e-27
sI11016
F0.17511811625014703
sI11018
F0.09840036564882704
sI11021
F0.03907833351062731
sI11022
F0.08448651803652452
sI11023
F1.9786432117848668e-116
sI11027
F0.020175385522096606
sI11031
F1.695421463582196e-38
sI11033
F1.9344954962686115e-40
sI11034
F0.18455432760707238
sI11035
F2.1245519712671025e-122
sI11037
F1.4557855190462202e-38
sI11039
F3.706659595749208e-39
sI11045
F0.22000372872862495
sI11049
F0.21718433679222723
sI11051
F0.1273865790697011
sI11060
F1.2817572899187624e-62
sI11061
F0.07012901906961017
sI11063
F0.032342519380585695
sI11066
F1.5488608540631702e-46
sI11067
F8.706101681802995e-06
sI11068
F2.008672555323748e-40
sI11070
F0.05541643567505297
sI11071
F7.914572847139467e-117
sI11073
F0.5746060239722544
sI11075
F0.2872375971274796
sI11079
F0.09562507890407854
sI11081
F3.4680094497504006e-05
sI11084
F0.9936980518048406
sI11085
F2.1200945554041235e-38
sI11086
F1.285550435407199e-41
sI11091
F6.961224480921809e-39
sI11092
F6.070840288205446e-56
sI11098
F0.7566935121214046
sI11100
F0.09061360527178149
sI11101
F0.09115272159487611
sI11106
F0.00972518522899228
sI11107
F0.8146364719326563
sI11109
F0.013432609178484167
sI11111
F7.236977281978067e-41
sI11113
F1.0
sI11119
F0.1090859529064322
sI11124
F0.6694429535491719
sI11125
F0.6481504337659165
sI11127
F0.6727404319619436
sI11129
F2.9269543808258383e-29
sI11131
F1.0
sI11133
F0.3582281921562506
sI11135
F0.021656606424350265
sI11138
F5.371706841061617e-56
sI11139
F1.0
sI11143
F0.6304140668606895
sI11145
F0.2897451119065182
sI11146
F0.7154535734405287
sI11155
F0.6093188727635095
sI11161
F0.6001576482443287
sI11163
F0.23450187040543047
sI11164
F3.3699933333938496e-45
sI11178
F0.33009007886428277
sI11180
F0.17488010396920078
sI11183
F0.4451788963002319
sI11184
F0.13658029879208763
sI11185
F0.9499105578594385
sI11189
F9.75546421973759e-96
sI11193
F1.799565517817304e-108
sI11196
F0.4697204838435652
sI11197
F0.24614758168604778
sI11199
F0.14648246854290473
sI11201
F8.054166132505604e-26
sI11203
F0.3162970320139883
sI11207
F0.2594262180102093
sI11211
F0.6227432656747222
sI11213
F0.2582753591432902
sI11222
F3.0649910817317916e-37
sI11223
F0.31197796552708534
sI11225
F0.02006331707657812
sI11228
F4.3819859198291626e-39
sI11229
F0.2846662380587214
sI11230
F0.8953835504094194
sI11232
F0.10979194699776437
sI11233
F0.0646034603219349
sI11235
F0.19639585844953306
sI11237
F0.00011578083981768906
sI11239
F0.09512540262133987
sI11241
F9.526820527087488e-94
sI11246
F2.1062458333711557e-44
sI11248
F3.138550867693356e-39
sI11251
F1.9427665612143338e-25
sI11253
F1.0032353968000676e-19
sI11254
F4.636163963544542e-29
sI11261
F0.5009915599941238
sI11265
F0.006194134502709507
sI11267
F0.026402516112934808
sI11276
F3.138550867693356e-39
sI11277
F0.34967231041525154
sI11279
F0.21494800026466127
sI11282
F1.3806226488876916e-46
sI11283
F0.2726008540864097
sI11284
F9.046256971665386e-51
sI11294
F1.5177100720513615e-55
sI11306
F3.8853377844514866e-57
sI11310
F2.4283361152821786e-56
sI11313
F0.22286284808452042
sI11315
F0.36707456985427755
sI11318
F0.6075353168472286
sI11319
F6.004968259741937e-29
sI11320
F8.034690221294992e-41
sI11324
F9.263367138985358e-53
sI11328
F3.138550867693356e-39
sI11331
F1.1523489198438957e-31
sI11332
F5.39198933343016e-46
sI11334
F6.247755701987998e-41
sI11336
F1.3876978125857711e-86
sI11340
F0.028035388023448703
sI11341
F0.4220094712721173
sI11343
F0.002926731200348513
sI11345
F1.773090609457369e-30
sI11347
F1.0
sI11349
F1.5676426594103784e-135
sI11354
F1.4134776518227165e-49
sI11359
F0.43317588488767306
sI11361
F0.24020438757721035
sI11362
F0.060395789070629355
sI11367
F0.786060511431514
sI11369
F0.8380270756468124
sI11372
F3.7939872877534317e-35
sI11373
F1.0
sI11378
F2.2615642429163465e-50
sI11385
F0.9455920866589762
sI11386
F1.0
sI11388
F0.9986237171169937
sI11390
F7.749164531840254e-74
sI11392
F1.0
sI11395
F0.19563322651931803
sI11397
F1.747097014074336e-25
sI11398
F3.8415791879544415e-38
sI11404
F2.607406049708163e-62
sI11406
F1.3803492693581213e-47
sI11416
F1.9239745011268546e-75
sI11422
F0.024988541621381838
sI11424
F0.0044586853174331574
sI11425
F0.0028184095041324905
sI11430
F0.02099721391788325
sI11431
F0.2238756347105122
sI11433
F0.044962167785498997
sI11435
F1.790542201171026e-26
sI11437
F0.4266809164040794
sI11443
F8.326595729467424e-28
sI11448
F0.036587419798922896
sI11449
F0.10847852981503346
sI11451
F2.735827871485831e-25
sI11453
F4.3828704278835596e-29
sI11455
F0.1609718184197313
sI11457
F0.3593712843385314
sI11459
F1.1978216388506056e-29
sI11462
F8.943105574847795e-32
sI11463
F0.019904940003291002
sI11464
F0.26438478009539784
sI11467
F7.054007630605164e-26
sI11469
F1.9277643656339287e-25
sI11470
F1.3372633431937936e-39
sI11479
F0.0007036559955249369
sI11485
F0.2929712441359431
sI11487
F0.21556264022214472
sI11488
F1.7422457186352116e-28
sI11502
F7.290971926354976e-38
sI11503
F2.9484081443918716e-111
sI11505
F1.6974239672002186e-37
sI11507
F2.6402626194300277e-38
sI11511
F1.264285311160478e-41
sI11513
F2.9430766935496584e-46
sI11516
F3.016249732712861e-51
sI11517
F2.210077094246236e-42
sI11518
F2.208558830972994e-48
sI11523
F5.754562170598242e-39
sI11524
F3.6185027886661547e-51
sI11529
F1.118728201937872e-38
sI11531
F2.5542037751120704e-40
sI11534
F3.2036892831562493e-42
sI11535
F2.435887888481807e-37
sI11536
F3.0649910817317916e-37
sI11540
F2.882845516304774e-57
sI11544
F1.044501972755382e-49
sI11546
F5.230937784986458e-112
sI11547
F6.073806840759162e-40
sI11548
F1.34799733335754e-45
sI11550
F2.1226006394947052e-43
sI11552
F8.135109499773319e-101
sI11559
F2.043107208919035e-37
sI11560
F5.0216813883093696e-40
sI11565
F1.284486103305718e-41
sI11566
F2.4283361152821786e-56
sI11568
F1.8957110720992255e-49
sI11570
F2.319342623490378e-89
sI11587
F5.543643335293026e-05
sI11593
F0.39226965979402906
sI11595
F0.023759259203205443
sI11596
F2.5462949704181275e-60
sI11611
F0.0024872479443095973
sI11613
F1.5446121705460558e-32
sI11614
F2.883368241725817e-51
sI11619
F0.4125028655366553
sI11620
F0.3389146981482728
sI11622
F3.1790585752117675e-50
sI11624
F1.5244409086489056e-94
sI11626
F1.0
sI11632
F7.150688925898515e-89
sI11664
F0.11955892762188357
sI11666
F0.10075487511672623
sI11669
F2.743280436580155e-25
sI11670
F0.6079240691400246
sI11671
F0.1533882047570363
sI11675
F0.07957245829605969
sI11679
F0.7588274538946611
sI11681
F0.02401432842948896
sI11682
F0.09362455823290758
sI11683
F0.1163304197596279
sI11685
F2.3301381223719227e-27
sI11687
F6.437403041459429e-30
sI11689
F0.00014506874208365046
sI11693
F0.3795244644774173
sI11697
F0.9117028471903839
sI11699
F0.5984132079218323
sI11708
F0.6415122055735557
sI11709
F0.08266746773724114
sI11711
F0.08489245264618295
sI11714
F3.0369791534847084e-32
sI11715
F0.8592829922290954
sI11716
F2.1062458333711557e-44
sI11718
F0.31572990664668693
sI11719
F0.20212535130834627
sI11721
F0.5609552213230047
sI11723
F5.049451393142147e-25
sI11725
F0.09230955479837613
sI11727
F0.46571699971505653
sI11729
F6.2904151765230245e-28
sI11732
F7.671885860712776e-51
sI11733
F0.5874990222557921
sI11734
F0.7583875379695383
sI11737
F6.4265027585456e-32
sI11739
F1.2032785765271601e-26
sI11740
F5.170340571369029e-42
sI11747
F0.07661817023525909
sI11751
F0.1788577851517551
sI11753
F0.03339334201579886
sI11762
F2.607406049708163e-62
sI11763
F0.3708623795159891
sI11765
F0.21891141735739827
sI11768
F7.526320939680531e-58
sI11769
F0.6698129689843086
sI11770
F1.878834066219083e-73
sI11780
F0.3817255833595188
sI11792
F0.3459786077156043
sI11796
F0.2860926017354788
sI11798
F1.0
sI11799
F1.0163517579626717e-38
sI11801
F1.486359991286429e-40
sI11804
F7.133270928416362e-48
sI11805
F2.678296089787446e-38
sI11806
F2.3158417847463393e-52
sI11810
F3.4508731733953033e-47
sI11814
F8.834235323891978e-49
sI11817
F3.1908558675819945e-40
sI11818
F2.4866161820489522e-58
sI11820
F1.2927271008990752e-49
sI11822
F2.329245735242288e-106
sI11826
F0.6232631355726794
sI11827
F0.8054427492098948
sI11829
F0.3247640711615451
sI11831
F6.6280436970774436e-40
sI11833
F1.0
sI11835
F0.5502473703970674
sI11837
F0.09723450472438908
sI11840
F5.286426395253538e-61
sI11841
F1.0
sI11845
F0.27379019931885556
sI11847
F1.97673729879099e-37
sI11848
F3.416451426520731e-52
sI11853
F0.9654696702648663
sI11855
F0.04131123120652354
sI11858
F2.7820401776888065e-50
sI11859
F1.0
sI11864
F0.3973555600320917
sI11870
F1.0
sI11871
F0.09232430376648271
sI11872
F6.518515124270407e-62
sI11874
F7.294825854839107e-48
sI11876
F1.845837338833306e-92
sI11881
F0.9284547784643967
sI11883
F0.11961882955005163
sI11884
F0.9586861210124995
sI11889
F0.2856909132221655
sI11890
F1.0
sI11892
F0.1563123634021762
sI11894
F6.179193617505242e-87
sI11896
F1.0
sI11902
F2.769260214586698e-85
sI11909
F0.050513380435407214
sI11913
F0.22759794878522896
sI11915
F0.6111053304247227
sI11924
F5.521397077432485e-48
sI11925
F0.6028906764920163
sI11927
F0.12453320310032798
sI11930
F2.1112636036370137e-42
sI11931
F0.9483342963756544
sI11932
F0.9396755962166564
sI11942
F1.0
sI11954
F0.06298952262772906
sI11958
F1.0
sI11960
F1.0
sI11961
F0.41448248097851015
sI11963
F2.9342219335551546e-25
sI11966
F7.871544231402086e-25
sI11967
F0.40968506703748303
sI11968
F0.3029439753865539
sI11972
F3.2138760885179975e-41
sI11976
F1.91561942608237e-36
sI11979
F1.0391103404048787e-24
sI11980
F1.4647133168398413e-32
sI11982
F4.036062511064584e-29
sI11984
F3.8032325928944493e-81
sI11986
F3.0154055197854406e-80
sI11996
F0.008800825705801095
sI12008
F0.11889703301980845
sI12012
F0.9927848536908278
sI12014
F1.0
sI12044
F2.975172573614752e-42
sI12048
F4.250345163827469e-53
sI12050
F1.402835754798267e-93
sI12059
F9.75546421973759e-96
sI12060
F1.5127283154999788e-40
sI12062
F6.220529130628106e-93
sI12065
F0.0
sI12066
F3.686709437738045e-88
sI12067
F2.013186873428575e-272
sI12069
F0.21635202062460163
sI12071
F0.04972041914164453
sI12074
F6.984247451227157e-54
sI12075
F1.0
sI12080
F7.167183174969036e-70
sI12087
F0.1828122249569517
sI12088
F0.9446792621718736
sI12090
F3.7304090821095814e-56
sI12092
F3.2950118700296744e-96
sI12094
F1.0
sI12098
F0.99648155611833
sI12104
F1.0
sI12114
F0.6577671300001459
sI12116
F1.879247787304487e-73
sI12119
F0.0
sI12120
F1.0
sI12123
F3.40888375217343e-05
sI12124
F0.960587012148567
sI12126
F1.0380581574201578e-45
sI12128
F4.852951206887303e-96
sI12130
F1.0
sI12132
F1.5914343565113296e-59
sI12137
F4.7998115382875774e-268
sI12142
F4.8300714425593305e-88
sI12144
F2.4981192275652155e-96
sI12145
F0.0
sI12150
F0.1293504407771229
sI12151
F0.16305713844565495
sI12153
F0.3899255362295058
sI12155
F1.641760340411762e-25
sI12157
F0.22697222677995682
sI12159
F0.35091123925814754
sI12161
F1.5756051990771505e-29
sI12164
F2.865505291759684e-40
sI12165
F0.08145179649652151
sI12166
F0.8646020770994776
sI12169
F2.5718528816322376e-23
sI12171
F8.857415895510975e-30
sI12172
F3.981316955706668e-43
sI12177
F0.11122273343054853
sI12179
F2.128564882496344e-23
sI12182
F1.430919837074399e-32
sI12183
F0.16670456380326054
sI12184
F4.67680523945891e-34
sI12188
F6.10561299004366e-32
sI12192
F0.6460899703949372
sI12194
F4.588801303360393e-71
sI12195
F1.599765336419615e-20
sI12196
F1.0889035741470071e-27
sI12198
F5.31648557066706e-30
sI12200
F7.880899130645291e-78
sI12205
F0.0275111033601528
sI12207
F0.7665309679356034
sI12208
F0.9462298293513405
sI12213
F0.6139881040138662
sI12214
F0.9997780820459251
sI12216
F0.9586853096029223
sI12218
F3.259989907233982e-88
sI12220
F3.525027099672593e-57
sI12226
F1.4184734944136905e-80
sI12231
F1.0129660079849628e-38
sI12233
F3.784989118152481e-39
sI12236
F9.63404907669806e-44
sI12237
F2.2324277712292738e-38
sI12238
F1.285550435407199e-41
sI12242
F5.789604461865848e-52
sI12246
F1.4821387422376575e-53
sI12249
F2.8135105311483962e-42
sI12250
F1.0679935179604635e-64
sI12252
F3.43400499651135e-51
sI12254
F7.047286744827825e-107
sI12260
F6.27033895501495e-54
sI12264
F1.9247384231132696e-60
sI12266
F4.7458514396560824e-96
sI12275
F1.351026840955036e-277
sI12276
F6.680096690301672e-44
sI12278
F6.780970599947076e-98
sI12281
F0.0
sI12282
F1.4664725989964601e-95
sI12283
F9.989595361011296e-98
sI12285
F9.668603731839979e-40
sI12286
F2.0568806966515186e-42
sI12288
F2.2102383469344068e-57
sI12290
F2.1019240318589003e-106
sI12294
F9.48568795032101e-55
sI12299
F2.2666469132500298e-282
sI12301
F3.9785858912783238e-59
sI12306
F6.194041481816552e-107
sI12307
F3.145604489732148e-271
sI12313
F0.7097074432659176
sI12315
F0.36020474161683314
sI12316
F0.8567725537196971
sI12321
F0.5853640693887769
sI12322
F1.0
sI12324
F0.2655247396742187
sI12326
F5.945851480676582e-91
sI12328
F1.0
sI12334
F4.027749719415529e-90
sI12339
F0.487284621651264
sI12340
F2.3158417847463393e-52
sI12342
F1.2493818723883652e-54
sI12344
F4.972394798539785e-92
sI12348
F0.7443928781125538
sI12350
F2.56388115046548e-84
sI12353
F0.0
sI12354
F1.0
sI12360
F6.845973083297841e-94
sI12361
F3.145604489732148e-271
sI12370
F1.0
sI12376
F1.0
sI12378
F1.0
sI12394
F0.1192440009401546
sI12396
F0.2980202530377853
sI12397
F0.4078923162313345
sI12402
F0.04367540937300754
sI12403
F0.11136273625653606
sI12405
F0.046168853884140146
sI12407
F0.15870162106096053
sI12409
F0.15429041446533742
sI12415
F0.6714196521788653
sI12420
F0.275831636462054
sI12421
F0.6438297355896287
sI12423
F0.22156448985924634
sI12425
F2.4829873980823304e-29
sI12427
F0.5114872706730077
sI12429
F0.2703457085550089
sI12431
F2.1553666080897712e-31
sI12434
F1.0129564866226118e-40
sI12435
F0.001145984177310212
sI12436
F0.6102393451996876
sI12439
F0.33600528127603835
sI12441
F0.1099533811332579
sI12442
F0.8968713463150731
sI12451
F2.3644899302271234e-23
sI12457
F3.156092312641456e-25
sI12459
F0.03074190857983202
sI12460
F1.66153499473115e-24
sI12474
F0.11175395262916449
sI12475
F1.0520271803096945e-140
sI12477
F0.22991748678175183
sI12479
F0.2858580150864371
sI12483
F0.12342220342155288
sI12485
F0.027733211495311064
sI12488
F0.9529234384719307
sI12489
F5.999397748355742e-44
sI12490
F2.1062458333711557e-44
sI12495
F4.1098980600089085e-49
sI12496
F4.1718496795330606e-63
sI12501
F1.0774561457433748e-43
sI12503
F1.2665847633451672e-45
sI12506
F4.07226118318078e-59
sI12507
F1.3275591278777515e-43
sI12508
F5.39198933343016e-46
sI12512
F8.038384839768669e-60
sI12516
F8.98058854968435e-63
sI12518
F1.334038352945579e-112
sI12519
F5.19161564343226e-44
sI12520
F9.94646472819581e-59
sI12522
F6.0150306656184856e-61
sI12524
F9.475705234616761e-113
sI12531
F0.2902478293313089
sI12532
F5.92855496895063e-54
sI12537
F0.09553019786796829
sI12538
F3.6185027886661547e-51
sI12540
F0.9528259743873673
sI12542
F1.0
sI12559
F0.003094847318588728
sI12565
F0.027908300257879624
sI12567
F9.085611418965572e-37
sI12568
F3.9785858912783238e-59
sI12583
F0.6252396595467218
sI12585
F0.7735569255238889
sI12586
F0.7537928264472942
sI12591
F0.2237872089467196
sI12592
F0.8824959918425003
sI12594
F7.7473384415695525e-50
sI12596
F5.74597754846962e-96
sI12598
F1.0
sI12604
F1.0
sI12636
F0.08934103227050456
sI12637
F0.48534723246278794
sI12639
F0.2776347377631221
sI12641
F0.5050000365537626
sI12643
F0.47403697526469346
sI12645
F3.091630018413853e-115
sI12650
F8.627182933488258e-47
sI12652
F2.1062458333711557e-44
sI12655
F0.2167816855572144
sI12657
F0.6257753786039241
sI12658
F0.9932644578377072
sI12663
F0.47639756155790935
sI12665
F3.6450575305191127e-22
sI12668
F9.92062648675304e-48
sI12669
F0.25059155152593177
sI12670
F0.2644571569229147
sI12674
F1.1417981541647729e-31
sI12678
F4.903985730770867e-38
sI12681
F0.6573255721176547
sI12682
F0.7524796310660552
sI12684
F0.9770944647944781
sI12686
F7.738996589091725e-68
sI12688
F1.0488004176524549e-47
sI12691
F7.388465773295831e-29
sI12693
F0.2883801997327548
sI12694
F2.1501187905573683e-40
sI12700
F3.2138760885179975e-41
sI12702
F2.1062458333711557e-44
sI12712
F1.2275261765565584e-71
sI12717
F0.1558681169698114
sI12719
F0.10299137147661733
sI12722
F0.3924520462856911
sI12723
F1.0631050062577071e-35
sI12724
F2.1062458333711557e-44
sI12728
F4.074071952669004e-61
sI12732
F2.3714219875802523e-54
sI12735
F4.904078771415204e-36
sI12736
F5.789604461865848e-52
sI12738
F6.321224808332044e-62
sI12740
F7.564353407701349e-100
sI12746
F6.2165404551223794e-58
sI12750
F2.156795733372064e-46
sI12761
F7.729075046034632e-115
sI12762
F1.5914343565113296e-59
sI12767
F8.646571782112231e-279
sI12769
F1.4134776518227165e-49
sI12771
F0.17318314814601826
sI12772
F1.447401115466462e-51
sI12774
F0.7215854881356593
sI12776
F1.0
sI12780
F4.6970851655477075e-73
sI12787
F3.549017208474682e-88
sI12792
F3.1355546084523983e-97
sI12793
F1.6652691511463604e-256
sI12799
F0.44763518499457594
sI12801
F0.19614483270360256
sI12802
F0.2564374226599542
sI12808
F2.7996809277222788e-68
sI12810
F5.521397077432485e-48
sI12820
F1.0
sI12825
F0.8784308625000692
sI12826
F1.0
sI12828
F0.39858343837480936
sI12830
F1.305068119540768e-72
sI12832
F1.0
sI12834
F7.167183174969036e-70
sI12839
F1.4105378370671656e-242
sI12844
F1.0
sI12846
F1.0
sI12856
F9.20430864747785e-76
sI12865
F7.880401239278971e-78
sI12883
F5.202658620335747e-26
sI12889
F1.4965795590736345e-27
sI12891
F1.0891456306127963e-25
sI12892
F1.7422457186352116e-28
sI12907
F2.502385217105993e-28
sI12909
F7.209276753728273e-25
sI12910
F3.1130405324563178e-37
sI12915
F1.0749404370585333e-27
sI12916
F3.684964257049722e-49
sI12918
F1.287362025652704e-28
sI12920
F1.2945034976783126e-80
sI12922
F2.118675900063089e-82
sI12928
F2.293350124868923e-75
sI12963
F2.4879112186481857e-41
sI12964
F5.789604461865848e-52
sI12969
F1.2270810209744541e-42
sI12970
F4.1718496795330606e-63
sI12972
F8.88701827552643e-43
sI12974
F3.1037170763161577e-86
sI12987
F5.683634071646145e-44
sI12988
F2.4283361152821786e-56
sI12990
F1.5231071534079832e-49
sI12992
F4.572731175974541e-108
sI12996
F7.562000250320315e-52
sI12998
F1.843064183285791e-110
sI13001
F0.0
sI13002
F2.330016574928332e-111
sI13003
F1.351026840955036e-277
sI13008
F1.1795860397154342e-106
sI13009
F1.0913507908952791e-259
sI13026
F7.586379184835488e-87
sI13027
F5.678427533559491e-89
sI13072
F3.474619449119156e-86
sI13078
F3.5531494162550564e-86
sI13080
F2.274456576234377e-96
sI13081
F2.9998822114297357e-267
sI13123
F0.27155161053251153
sI13125
F0.5071471865062405
sI13126
F0.7053714617582667
sI13131
F0.215388635105362
sI13132
F0.28278496290321614
sI13134
F0.46296385850753635
sI13136
F0.5616185307732412
sI13138
F0.18353762010764454
sI13144
F0.7577043442617227
sI13149
F0.29283264787809116
sI13150
F0.3572635956935373
sI13152
F0.5150069801093582
sI13154
F0.5885635150567534
sI13156
F0.03238664458545792
sI13158
F0.2986387389175831
sI13160
F0.24332183080315356
sI13163
F0.9244572893350363
sI13164
F0.24559461782789144
sI13165
F0.16329762671892406
sI13168
F0.113139909541415
sI13170
F0.3613289122371605
sI13171
F0.8308958491285307
sI13180
F0.33305541041117526
sI13186
F0.043019707211007646
sI13188
F0.017045822102765413
sI13189
F1.4196068833898728e-88
sI13203
F0.17746669945020177
sI13204
F0.44444637191937647
sI13206
F0.5270638413588207
sI13208
F0.25324852073643284
sI13210
F0.23376565424306153
sI13212
F0.27444797485620875
sI13214
F0.004930410317870175
sI13217
F0.25900456188257037
sI13218
F0.4543895041213164
sI13219
F0.7337621864170022
sI13222
F0.43984284459154877
sI13224
F0.2695906386269858
sI13225
F0.7229329004974768
sI13230
F0.5313277575263159
sI13232
F0.053727639019832
sI13235
F0.1717241836429493
sI13236
F0.02038099482826521
sI13237
F0.12704653586904235
sI13241
F0.02010518699658506
sI13245
F0.016173141750434543
sI13247
F9.10472922354412e-38
sI13248
F0.027739602735178594
sI13249
F0.4525340599169463
sI13251
F0.25288141718775636
sI13253
F0.6147570189959773
sI13255
F0.052378784095616734
sI13258
F0.2016746117845537
sI13260
F0.2321158678298856
sI13261
F0.2369894435762069
sI13266
F0.12980879583291055
sI13267
F0.018324747779701177
sI13269
F0.16111866139573455
sI13271
F0.00012502208275220604
sI13273
F4.757219502921216e-38
sI13279
F0.03481175848175383
sI13288
F0.08710165048576621
sI13294
F0.024040568922555808
sI13296
F0.13813856100755154
sI13297
F2.392032866531948e-132
sI13312
F0.1482941550969152
sI13314
F0.945545120951874
sI13315
F0.4598758330395793
sI13320
F0.3787161538636818
sI13321
F0.14707764483329167
sI13323
F0.21936166389143053
sI13325
F1.0
sI13327
F0.09665929028056056
sI13333
F0.863918508139927
sI13365
F0.2041423912422277
sI13366
F0.18534875196494574
sI13368
F0.3001470682612377
sI13370
F0.49482597689788477
sI13372
F0.08413344852849512
sI13374
F0.5363898341272502
sI13376
F0.4086280443185159
sI13379
F0.9930414901884644
sI13380
F0.38067995196908905
sI13381
F0.5415642845153459
sI13384
F0.0443698092100505
sI13386
F0.15153988045338582
sI13387
F0.4147579299880733
sI13392
F0.17562510554067517
sI13394
F0.021320643543956568
sI13397
F0.681842558618571
sI13398
F0.11282170721545315
sI13399
F0.38449211394329996
sI13403
F0.5206957880042402
sI13407
F0.5145412317388361
sI13409
F0.20936235179275298
sI13410
F0.05418519052565596
sI13411
F0.532973377426216
sI13413
F0.059209810294376886
sI13415
F0.016241405072688623
sI13417
F4.923355974698974e-24
sI13420
F0.09509204506157684
sI13422
F0.2716724451065791
sI13423
F0.04653777305552846
sI13428
F0.34668854157661966
sI13429
F0.06017260231225145
sI13431
F0.4355506440247041
sI13433
F0.785855705132432
sI13435
F4.1167966789942866e-26
sI13441
F2.8791858066249545e-26
sI13446
F0.05865399554925711
sI13448
F0.1326074358543741
sI13451
F0.13174315312588156
sI13452
F0.01706150010625366
sI13453
F0.025675337756570646
sI13457
F0.3137430274677001
sI13461
F0.46118707637620393
sI13463
F9.553971991003888e-38
sI13464
F0.013875141530389289
sI13465
F0.3433993370664276
sI13467
F0.03905424028974946
sI13469
F2.752525676944797e-40
sI13471
F6.530303873966243e-37
sI13475
F1.4950205415824673e-131
sI13479
F4.946608029462166e-116
sI13490
F3.0649910817317916e-37
sI13491
F1.0772758326371274e-142
sI13496
F5.142201741628796e-42
sI13498
F3.0649910817317916e-37
sI13500
F0.14481119531126688
sI13501
F0.05084251361206489
sI13503
F0.24880856301624193
sI13505
F0.590760255663489
sI13507
F1.0490926028333254e-37
sI13509
F0.20603195969351362
sI13511
F0.3121850407993787
sI13514
F0.9844473129571485
sI13515
F1.8728368416774692e-36
sI13516
F9.223614531570606e-47
sI13519
F9.142305025140732e-42
sI13521
F6.363562278477463e-38
sI13522
F4.3284569678806377e-54
sI13528
F0.1318887357405537
sI13530
F0.3856821497174253
sI13531
F0.08738849989960842
sI13536
F0.5593206135192024
sI13537
F0.3609475010849337
sI13539
F0.39385110484632535
sI13541
F1.0
sI13543
F0.50231184653647
sI13549
F0.08177205965941758
sI13554
F0.3777708436579924
sI13555
F0.44311527046780025
sI13557
F0.9245282381502513
sI13559
F1.0
sI13561
F0.1312888340747607
sI13563
F0.9912131414058807
sI13565
F1.0
sI13569
F0.45120982696365053
sI13570
F0.2953335030999221
sI13573
F0.26293232768360564
sI13575
F0.5915391080413736
sI13576
F0.6961827522425021
sI13585
F2.8205981340079175e-33
sI13591
F6.281135410312561e-40
sI13593
F0.3559905513777036
sI13594
F2.3158417847463393e-52
sI13612
F0.7251215225201151
sI13618
F0.005349611142248317
sI13620
F0.014299396815597862
sI13621
F2.5573364124188926e-99
sI13636
F0.305296251760025
sI13638
F0.9141511791130852
sI13639
F0.976895494979855
sI13644
F0.1300441079362568
sI13645
F0.012976754152133028
sI13647
F0.25600190590218685
sI13649
F0.15456851399269145
sI13651
F3.4385465855210758e-25
sI13657
F1.0
sI13690
F0.571564431741798
sI13692
F0.08071263788416222
sI13693
F0.9796859521574702
sI13698
F0.028718474559845858
sI13699
F0.012614071710959306
sI13701
F0.002237140865305135
sI13703
F1.0995907911857407e-38
sI13705
F3.869289707239083e-41
sI13711
F1.0
sI13716
F0.6475615901031389
sI13717
F0.8704675719781996
sI13719
F0.958624138503407
sI13721
F0.0159582492634866
sI13723
F0.01327769238358073
sI13725
F0.08710190448847141
sI13727
F1.2217291342288394e-43
sI13730
F9.028888019338214e-57
sI13731
F3.92154598022617e-33
sI13732
F2.752028497038435e-41
sI13735
F1.0
sI13737
F1.0
sI13747
F0.08794967754632563
sI13753
F1.1278879553617987e-32
sI13755
F5.972673891961961e-30
sI13756
F4.567192616659092e-32
sI13801
F0.08604736197415874
sI13807
F2.6665227981834668e-34
sI13809
F0.37321137103140695
sI13810
F3.0649910817317916e-37
sI13851
F0.11335187060561416
sI13852
F0.09121903504347033
sI13854
F0.4728072142420967
sI13856
F0.4752682651258034
sI13858
F0.015049877254532943
sI13860
F0.3330267247004026
sI13862
F0.2837713453758745
sI13865
F0.30244959292561
sI13866
F0.35779428563148435
sI13867
F0.21379760414740512
sI13870
F0.0004049855185482088
sI13872
F0.28433205729320027
sI13873
F0.9366375543449936
sI13878
F0.47767698144860526
sI13880
F0.3552002244724374
sI13883
F0.43362166877922254
sI13884
F0.1890745581036845
sI13885
F1.524291284333998e-94
sI13889
F0.7549825856736824
sI13893
F0.1355627007715033
sI13895
F0.4536317330509526
sI13896
F0.4458172573805682
sI13897
F5.438853046443784e-124
sI13899
F0.44011585915732665
sI13901
F0.9437956941217667
sI13906
F0.20313281793776367
sI13908
F0.1101550043397873
sI13909
F0.5260273751898675
sI13914
F0.07199994499892169
sI13915
F0.15606878679832237
sI13917
F0.02848837623202842
sI13919
F0.03071980670804854
sI13921
F1.617246409557237e-27
sI13927
F0.014110299403214507
sI13932
F0.14680993868248468
sI13934
F0.21000678071025886
sI13937
F0.0003971265875072754
sI13938
F0.044395861237857256
sI13939
F0.058009294020435795
sI13943
F1.723641332219404e-143
sI13947
F5.98008216632987e-132
sI13950
F0.16076280967479795
sI13951
F0.8549223717915277
sI13953
F0.3751336234282673
sI13955
F0.10085208588150982
sI13957
F0.09161337207122167
sI13961
F0.32487395496559196
sI13965
F0.05811382504174326
sI13967
F0.02577699203558457
sI13976
F1.285550435407199e-41
sI13977
F0.6521749769260796
sI13979
F0.11555221820659903
sI13982
F0.9025604167054805
sI13983
F9.818900113817762e-05
sI13984
F1.6296287810676014e-61
sI13986
F0.1274135364588926
sI13987
F0.2886790055209085
sI13989
F0.032982332408399866
sI13991
F1.671467169435082e-36
sI13993
F2.2347662829057075e-45
sI13995
F5.186894461101323e-120
sI14000
F3.138550867693356e-39
sI14002
F2.3158417847463393e-52
sI14005
F0.25685008779968643
sI14007
F0.05010108642448646
sI14008
F0.1215219423918164
sI14014
F0.031055998396704212
sI14016
F0.28624424432801077
sI14017
F0.14966041182204
sI14022
F0.1719704429965451
sI14023
F0.13520324007985204
sI14025
F0.7591560581990338
sI14027
F1.0
sI14029
F0.15774642059970226
sI14035
F0.005921348118406375
sI14040
F0.6233404494873815
sI14041
F3.827252586451117e-133
sI14043
F0.8737152483915588
sI14045
F1.0
sI14049
F0.913149252993836
sI14051
F1.0
sI14055
F0.8497365108545073
sI14056
F4.4794894843556464e-69
sI14061
F0.1652727601422119
sI14062
F4.37450144956606e-67
sI14071
F0.06847704749785427
sI14077
F0.6077142124383362
sI14079
F0.10366235274951816
sI14080
F6.835158514946968e-66
sI14094
F0.12514730345287786
sI14096
F0.5855162120528896
sI14099
F0.41770917613915853
sI14100
F0.5385340080153499
sI14101
F0.17029729756287404
sI14105
F0.8952785584287012
sI14109
F0.5286894501845512
sI14111
F0.4532534421468546
sI14112
F0.011447851233813679
sI14113
F1.990466073154451e-31
sI14115
F0.1911743140372858
sI14117
F0.2793917496168118
sI14119
F1.9707930086160304e-31
sI14123
F0.781406289197609
sI14127
F0.6360121336012452
sI14129
F0.7278202145454598
sI14138
F0.3807708627191785
sI14139
F0.011004846958794987
sI14141
F0.0547372423118308
sI14144
F0.6231171114349805
sI14145
F0.03661597957155329
sI14146
F2.993155353253703e-35
sI14148
F0.004535682895001621
sI14149
F8.810838622197283e-28
sI14151
F0.04811149256002041
sI14153
F0.5905720802518061
sI14155
F8.418533827636594e-29
sI14157
F0.28275645104809544
sI14159
F0.23762897932737487
sI14162
F0.3615956732329513
sI14163
F8.077195375606073e-24
sI14164
F8.091725610707979e-33
sI14167
F1.491849829143823e-31
sI14169
F3.7047586393761424e-27
sI14170
F5.7996059224486176e-36
sI14177
F0.014621939522953247
sI14181
F0.16003570464525943
sI14183
F0.6127279240739363
sI14192
F3.2138760885179975e-41
sI14193
F0.14101094281526105
sI14195
F0.023886501814713322
sI14198
F3.59436411082071e-74
sI14199
F0.2310824484957568
sI14200
F1.0240350188978282e-50
sI14210
F1.5541351137805946e-57
sI14222
F1.923926083808342e-75
sI14226
F9.713344461128715e-57
sI14229
F7.08521307967221e-38
sI14231
F2.9208318406923966e-42
sI14234
F3.1104197390738967e-56
sI14235
F2.1190965332511182e-38
sI14236
F2.5146101772997895e-47
sI14240
F3.9785858912783238e-59
sI14244
F6.2165404551223794e-58
sI14247
F4.7915887905328866e-40
sI14248
F3.4676569160189417e-50
sI14250
F3.590260672805529e-43
sI14252
F1.8361085870026306e-106
sI14254
F2.847552027756683e-107
sI14256
F0.2383963656932378
sI14257
F0.03248187657330005
sI14259
F0.6418652158893114
sI14261
F1.0
sI14263
F0.06025057858917862
sI14265
F0.9867636761056572
sI14267
F1.0
sI14271
F0.8706172100904087
sI14272
F0.6986411249101274
sI14275
F4.9179694878086847e-42
sI14277
F0.15164485781509066
sI14278
F1.1999119888295072e-53
sI14283
F0.21634486302765243
sI14285
F1.0
sI14289
F0.7366705002998156
sI14290
F5.653910607290866e-50
sI14298
F1.0
sI14300
F1.0
sI14301
F0.01723320924508876
sI14302
F2.2615642429163465e-50
sI14304
F0.15860793736311024
sI14306
F1.0
sI14311
F4.259143751903701e-43
sI14313
F0.5832849020373961
sI14314
F4.48002653950718e-55
sI14319
F0.024692571685725084
sI14320
F6.447818534812477e-55
sI14322
F0.2491933592645757
sI14324
F1.0
sI14326
F6.542787186786111e-89
sI14332
F1.0454794353616541e-93
sI14338
F0.25965163281688264
sI14340
F0.675955401759096
sI14341
F0.7708279873964123
sI14346
F0.1930719024290187
sI14347
F0.29116500485953006
sI14349
F0.033700832946817416
sI14351
F0.016338272534038224
sI14353
F3.4997752812374675e-26
sI14359
F1.0
sI14364
F0.10825277739128913
sI14365
F8.702164874310056e-125
sI14367
F0.6882119390554429
sI14369
F0.2531700737195011
sI14373
F0.27417479467181294
sI14375
F0.4405824321324303
sI14378
F0.7150504380480848
sI14379
F2.4624805939498985e-25
sI14380
F6.968982874540848e-29
sI14385
F1.0
sI14395
F0.8599301624044784
sI14401
F2.2073859667867874e-05
sI14403
F0.027290398545720802
sI14404
F1.961594292308347e-38
sI14418
F0.08168518572141542
sI14419
F0.34960239765034595
sI14421
F0.9058235997263531
sI14423
F0.1461815002105564
sI14425
F0.0007876103258176474
sI14427
F1.027370293271186e-138
sI14432
F5.653910607290866e-50
sI14434
F3.29100911464243e-43
sI14437
F1.0
sI14439
F1.0
sI14445
F0.6160204899238865
sI14447
F0.5109261201830981
sI14450
F0.8436358336698395
sI14451
F0.00011237944863904612
sI14452
F6.365737426045318e-60
sI14456
F1.5914343565113296e-59
sI14460
F8.834235323891978e-49
sI14463
F1.0
sI14468
F1.0
sI14473
F0.2606214521116956
sI14475
F0.0025980114777321775
sI14476
F0.9436130681999857
sI14482
F1.042962419883265e-62
sI14484
F1.91561942608237e-36
sI14494
F1.0
sI14503
F0.240064793166544
sI14509
F0.0297013650031819
sI14511
F0.07421491677819851
sI14512
F3.533694129556791e-49
sI14529
F0.28126269359117745
sI14530
F3.794275180128404e-55
sI14535
F0.026726356786390584
sI14536
F4.074071952669004e-61
sI14538
F0.6101502651148996
sI14540
F1.0
sI14584
F0.24744723526686152
sI14590
F0.08495202693351583
sI14592
F0.08129103759783846
sI14593
F8.49820788506841e-123
sI14608
F0.6087858960673754
sI14610
F0.34374536020709656
sI14611
F0.47289168566954176
sI14616
F0.7271808689556032
sI14617
F0.7204514928881335
sI14619
F0.8047581399611896
sI14621
F0.8947889996985837
sI14623
F0.25049922274822223
sI14629
F1.0
sI14662
F0.28926534179997826
sI14664
F0.09698762521005719
sI14665
F0.9962511723178377
sI14670
F0.10406212816364016
sI14671
F0.5027592484286154
sI14673
F0.0444608897013935
sI14675
F0.0004288865742676267
sI14677
F0.2917169373730456
sI14683
F0.03981012941779573
sI14688
F0.5324277550340307
sI14689
F0.897445104141015
sI14691
F0.21386297154663453
sI14693
F6.49992685078167e-05
sI14695
F2.735944044388405e-05
sI14697
F0.5133068331991734
sI14699
F0.5766359607914444
sI14702
F0.958001962208726
sI14703
F0.010381135154523134
sI14704
F0.3461501889297013
sI14707
F0.3827532284161278
sI14709
F0.24055478667208569
sI14710
F1.0
sI14719
F0.25291765838484936
sI14725
F0.008279223493612492
sI14727
F0.09639725299226451
sI14728
F9.48568795032101e-55
sI14773
F0.057505600280563715
sI14779
F0.2663082131511396
sI14781
F0.887075417541087
sI14782
F9.713344461128715e-57
sI14824
F0.4443628465817498
sI14826
F0.5830049067696191
sI14827
F0.5426133351256106
sI14832
F0.5338276368653965
sI14833
F0.8664709289725441
sI14835
F0.6723531549625965
sI14837
F1.0
sI14839
F0.8066010759164846
sI14845
F0.7496293718663034
sI14850
F0.8569427469007411
sI14851
F0.83937393102357
sI14853
F0.8000572224556044
sI14855
F0.6165963340720142
sI14857
F0.03821644663813543
sI14859
F0.9435654927446896
sI14861
F0.7622941698601191
sI14864
F1.0
sI14865
F0.06797363386623825
sI14866
F0.8580482872751457
sI14869
F0.35515875086072757
sI14871
F0.6220597748951675
sI14872
F1.0
sI14881
F0.004136392237748514
sI14887
F1.6477429590930125e-05
sI14889
F0.35799022913796363
sI14890
F8.834235323891978e-49
sI14904
F0.1085637010259893
sI14905
F0.3923891839312714
sI14907
F0.7710173676137186
sI14909
F0.0988632815705964
sI14911
F0.042565697001527944
sI14913
F0.7073915563856554
sI14915
F0.4695200656236691
sI14918
F1.0
sI14919
F0.04853373630543413
sI14920
F0.9817004426237889
sI14923
F2.4187231694933805e-06
sI14925
F0.00023615185537717353
sI14926
F0.00039354192703838005
sI14931
F3.4140233896345604e-162
sI14936
F5.0216813883093696e-40
sI14938
F4.1718496795330606e-63
sI14942
F2.8668732699876145e-70
sI14946
F4.37450144956606e-67
sI14950
F1.791795793742259e-69
sI14952
F3.3699933333938496e-45
sI14959
F0.1135533773933228
sI14961
F0.8463272286014488
sI14962
F0.9924060929239207
sI14967
F0.8501619002849296
sI14968
F0.7129078940325915
sI14970
F1.0
sI14972
F1.0
sI14974
F2.557349420513461e-96
sI14980
F9.958054967105761e-90
sI14989
F0.056501191276825194
sI14995
F0.4218106457484795
sI14997
F0.8570803106936282
sI14998
F2.607406049708163e-62
sI15013
F0.5817094205627125
sI15015
F1.0
sI15016
F1.0
sI15021
F0.8922910892991263
sI15022
F0.6422748958545585
sI15024
F1.0
sI15026
F1.0
sI15028
F5.416044584463855e-84
sI15034
F1.0
sI15097
F0.12164768161354364
sI15103
F0.00036588299755168795
sI15105
F0.06609716697556815
sI15106
F3.3699933333938496e-45
sI15151
F0.0009854418121607743
sI15157
F0.39261959007923136
sI15159
F0.3993555329097442
sI15160
F3.794275180128404e-55
sI15175
F0.1779728161587661
sI15177
F0.3200340070171218
sI15178
F1.0
sI15183
F0.06930815051243082
sI15184
F0.26173464769330307
sI15186
F0.10264171263775382
sI15188
F3.088287511493316e-101
sI15190
F6.644115130618907e-87
sI15196
F1.0
sI15309
F0.08353197433356332
sI15310
F0.050892691046735605
sI15312
F0.3646565863055897
sI15314
F0.24712337409668275
sI15316
F0.00915657685630343
sI15318
F0.7361669218663001
sI15320
F0.8908685900113145
sI15323
F0.6117061792617939
sI15324
F0.16547519963629131
sI15325
F5.485810745739836e-27
sI15328
F0.41432562820703245
sI15330
F0.4017986282748193
sI15331
F0.8760387559412449
sI15336
F0.5505005197539586
sI15338
F0.5850733485753916
sI15341
F0.9686077390176251
sI15342
F0.5534420368761743
sI15343
F0.06135778032919821
sI15347
F0.639552959865316
sI15351
F0.2291062797385186
sI15353
F0.29709443408995106
sI15354
F0.6413131976481458
sI15355
F0.45268852325187203
sI15357
F0.7747532513120476
sI15359
F0.13927191120601987
sI15361
F0.5887778108979819
sI15364
F0.0374612743473795
sI15366
F0.07836998854586573
sI15367
F0.028164804058325908
sI15372
F0.25950792520691207
sI15373
F0.006975194494768312
sI15375
F0.36978389675079676
sI15377
F0.17897073585147255
sI15379
F5.822695439768574e-27
sI15385
F0.03870997255962408
sI15390
F0.026134967416298584
sI15392
F0.0011060506007274013
sI15395
F7.914572847139467e-117
sI15396
F0.028706282472819145
sI15397
F0.15895282664829447
sI15401
F0.012261761240757528
sI15405
F9.63586735648631e-42
sI15407
F2.439186317639387e-46
sI15408
F0.1850341423179584
sI15409
F0.19973522501763802
sI15411
F3.4959599509857906e-164
sI15415
F0.9059456859674124
sI15419
F0.17631222930346765
sI15423
F0.018345574536845405
sI15425
F0.10116927480692658
sI15434
F1.1104806535584883e-58
sI15435
F0.846485229602747
sI15437
F0.09600029942126806
sI15440
F3.7053468555941432e-53
sI15441
F0.007615598834672362
sI15442
F0.9928053478474784
sI15444
F0.006436086173817674
sI15445
F0.11886599015542973
sI15447
F3.902185687895036e-96
sI15451
F3.635248213076704e-33
sI15453
F0.04444644129029264
sI15455
F0.0010607913048873117
sI15458
F1.5177100720513615e-55
sI15459
F1.801361935646334e-42
sI15460
F2.604016929001998e-47
sI15463
F0.3956705655627058
sI15466
F1.1198723710889116e-68
sI15472
F0.14169256484559428
sI15474
F0.5890857640354552
sI15475
F0.14824036099067353
sI15480
F0.5710102433239863
sI15481
F0.006154753474008833
sI15483
F0.7816132193670187
sI15485
F1.0
sI15487
F1.0292515918241372e-34
sI15493
F0.6193086933297635
sI15498
F0.4702257835688157
sI15499
F0.11578714475306134
sI15501
F0.9935732470153888
sI15503
F1.0
sI15505
F1.1065345284096133e-30
sI15507
F0.838638085112922
sI15509
F1.0
sI15513
F0.324272094318858
sI15514
F9.266892459495766e-46
sI15517
F0.5643296861026673
sI15519
F1.0
sI15520
F1.0
sI15529
F0.4566161456573489
sI15535
F0.0033498642799563508
sI15537
F0.37947151962436326
sI15538
F9.48568795032101e-55
sI15552
F0.5578246926424986
sI15554
F0.7184142139489742
sI15557
F0.29667623561896544
sI15558
F0.22796635324740303
sI15559
F7.518064758279009e-26
sI15563
F0.8906543617470596
sI15567
F0.5558639793073542
sI15569
F0.9052709487648933
sI15570
F0.5516554691265313
sI15571
F0.2197773572889837
sI15573
F0.35398378096486444
sI15575
F0.21483733512888972
sI15577
F2.062647493377053e-27
sI15581
F0.5409000435425817
sI15585
F0.34988883528400916
sI15587
F0.41452227054655544
sI15596
F0.6102123201042798
sI15597
F0.42293207635411345
sI15599
F0.039741432986865124
sI15602
F0.29769393954150347
sI15603
F0.4230324671250132
sI15604
F7.22357711787987e-38
sI15606
F0.22402718030548902
sI15607
F1.4048328527977506e-26
sI15609
F0.31380576213024025
sI15611
F0.03226025885977111
sI15613
F4.331015728420153e-28
sI15615
F0.12746677590345096
sI15617
F0.601256923206735
sI15620
F1.0
sI15621
F1.089144062154541e-21
sI15622
F3.689685291009653e-33
sI15625
F8.079877777665515e-28
sI15627
F1.261164653680881e-18
sI15628
F1.7669136713073117e-32
sI15635
F0.11287997524562349
sI15639
F0.4216351048554944
sI15641
F0.7003799431461823
sI15650
F3.5648624499264736e-58
sI15651
F0.10545917147473446
sI15653
F7.438881808322542e-05
sI15656
F1.3803492693581213e-47
sI15657
F0.21686575651143153
sI15658
F1.996448863790775e-53
sI15668
F3.9785858912783238e-59
sI15680
F1.7087896287367417e-65
sI15684
F9.94646472819581e-59
sI15687
F0.11983681824636605
sI15689
F0.17297388610570802
sI15692
F2.1062458333711557e-44
sI15693
F4.503158410163531e-30
sI15694
F5.393866080192604e-43
sI15698
F0.8880007058370957
sI15702
F2.004147410654045e-42
sI15704
F2.9325435789577015e-92
sI15705
F2.770774160824792e-37
sI15706
F7.948009713105787e-55
sI15708
F8.627182933488258e-47
sI15712
F2.7459211173056498e-105
sI15714
F0.24353981449750917
sI15715
F0.11329778736672255
sI15717
F0.6380387284427544
sI15719
F1.0
sI15721
F7.355877322427047e-33
sI15723
F0.5029935588530321
sI15725
F1.0
sI15729
F0.005684491917478572
sI15730
F8.30300780861519e-51
sI15733
F0.1472908268189919
sI15735
F0.1853817738074248
sI15736
F0.025509937341637
sI15741
F0.535260807095256
sI15743
F1.0
sI15747
F0.29837260427406254
sI15748
F3.1611472629151864e-37
sI15756
F0.2967108578531699
sI15758
F1.0
sI15759
F0.6607332298967263
sI15760
F0.36111427340047253
sI15762
F1.0
sI15764
F1.0
sI15766
F5.288039611810818e-71
sI15769
F1.795581612615916e-27
sI15771
F0.46230148496344947
sI15772
F7.555500520374889e-42
sI15777
F0.7364446783310514
sI15778
F2.757126558288911e-43
sI15780
F0.29663866575201364
sI15782
F1.0
sI15784
F3.8415147600054695e-94
sI15790
F2.329754280042351e-73
sI15796
F0.4362593636077208
sI15798
F0.6672507770930532
sI15799
F0.6461393734868496
sI15804
F0.03699601263111214
sI15805
F0.0007934800838517123
sI15807
F0.04273726327626385
sI15809
F0.37516912561772947
sI15811
F2.080725724831993e-27
sI15817
F1.0
sI15822
F0.4282071373748989
sI15823
F0.09948373639628988
sI15825
F0.793491869128543
sI15827
F0.06521072258310705
sI15829
F0.00955684495776785
sI15831
F0.1648866949460125
sI15833
F0.6061599543197228
sI15836
F0.04184537623773171
sI15837
F9.989381160583698e-24
sI15838
F2.982699667112994e-33
sI15841
F1.0
sI15843
F1.0
sI15853
F0.6001680212913938
sI15859
F0.005441326319523866
sI15861
F0.25091289199402617
sI15862
F2.7222589353675177e-27
sI15876
F0.03670174829824464
sI15877
F0.07255862901692423
sI15879
F5.569385519558436e-126
sI15883
F0.2201358846992481
sI15885
F2.9820620318817755e-39
sI15887
F2.6786519301129367e-45
sI15890
F2.3158417847463393e-52
sI15891
F8.993221495496481e-42
sI15892
F6.369090077181944e-53
sI15895
F1.0
sI15903
F0.7143311819457493
sI15905
F0.45539421886065734
sI15908
F8.627182933488258e-47
sI15909
F0.07133232590154524
sI15910
F0.3394822053365949
sI15914
F1.948604699936896e-67
sI15918
F9.571937599728809e-44
sI15920
F1.807945525074332e-108
sI15921
F1.0
sI15928
F1.0
sI15931
F0.19197893080790748
sI15934
F9.94646472819581e-59
sI15939
F2.972578675683922e-38
sI15940
F6.770278240344399e-72
sI15942
F3.0649910817317916e-37
sI15946
F2.755269278833726e-105
sI15961
F0.04556652336387154
sI15967
F0.23926523401563657
sI15969
F0.33352723993523603
sI15970
F6.2165404551223794e-58
sI15985
F0.002303008773412791
sI15987
F0.7487976259517556
sI15988
F0.7191259012900254
sI15993
F0.15282933722055614
sI15994
F5.0114687580951576e-70
sI15996
F0.8645287186137092
sI15998
F1.0
sI16000
F1.6387109286197657e-97
sI16006
F1.0
sI16038
F0.35175198758357823
sI16040
F0.5584122247478602
sI16043
F0.47383489830099035
sI16044
F0.3048299889346683
sI16045
F0.10342387697940092
sI16049
F0.9805460492683764
sI16053
F0.04766509008398996
sI16055
F0.19644966758764779
sI16056
F0.7116329019011893
sI16057
F0.9855452449629167
sI16059
F0.34997798934583035
sI16061
F0.6395241833554219
sI16063
F0.03859594270521707
sI16067
F0.8022388424333207
sI16071
F0.2950806017788182
sI16073
F0.7849357460641031
sI16082
F0.2885415939078496
sI16083
F0.9146048491043419
sI16085
F1.0
sI16088
F1.0
sI16089
F0.4283618123537254
sI16090
F1.4134776518227165e-49
sI16092
F0.18956773310105024
sI16093
F0.16599117871512992
sI16095
F0.6249309835227589
sI16097
F0.8111094215235974
sI16099
F3.453275779986264e-29
sI16101
F0.11822954879898231
sI16103
F0.280661511302181
sI16106
F0.3819470831696733
sI16107
F5.902917999186401e-27
sI16108
F1.8099682046422065e-38
sI16111
F0.2796877170687476
sI16113
F0.002417353514253539
sI16114
F0.9784289130203206
sI16121
F0.02705749563190906
sI16125
F0.20083067855831477
sI16127
F0.6035711952922626
sI16136
F1.0185179881672509e-60
sI16137
F0.6601495792145903
sI16139
F0.6295962523859034
sI16142
F5.0434567931385415e-79
sI16143
F0.8499770731999876
sI16144
F0.7526887913373668
sI16154
F0.30353144473758703
sI16166
F1.0
sI16170
F1.0
sI16172
F1.0
sI16173
F0.06310162612832271
sI16175
F3.911650098394407e-39
sI16178
F2.0568806966515186e-42
sI16179
F1.4430529217949698e-36
sI16180
F1.9891633934763171e-47
sI16184
F1.042962419883265e-62
sI16188
F1.5541351137805946e-57
sI16191
F0.1024619309333262
sI16192
F0.6544051905167274
sI16194
F7.167183174969036e-70
sI16198
F9.694358529823062e-92
sI16200
F0.29682334224918916
sI16201
F0.06445036679502814
sI16203
F0.8369896645376739
sI16205
F1.0
sI16207
F5.6231369434020685e-42
sI16209
F0.45570881671804303
sI16211
F1.0
sI16215
F0.22716588974306284
sI16216
F2.8228826761299964e-63
sI16219
F0.21522832834949085
sI16221
F0.7361119972623342
sI16222
F0.9834722287415032
sI16227
F0.6612229579040081
sI16229
F1.0
sI16233
F0.10024969443385326
sI16234
F9.713344461128715e-57
sI16242
F0.9969900249767304
sI16244
F1.0
sI16245
F0.023771369812421103
sI16246
F4.37450144956606e-67
sI16248
F1.0
sI16250
F1.0
sI16255
F0.13136204829117815
sI16257
F0.6650435119585127
sI16258
F0.6989201734457122
sI16263
F0.8797846848889924
sI16264
F0.9845418466156602
sI16266
F1.0
sI16268
F1.0
sI16270
F1.4536775984352187e-90
sI16276
F2.0885350622358204e-75
sI16283
F0.812628089438479
sI16287
F0.420202260654805
sI16289
F0.3839588080093991
sI16298
F0.9832596530772666
sI16299
F0.8818631798119942
sI16301
F0.9379640852384397
sI16304
F0.06340947136426046
sI16305
F0.10507029131719711
sI16306
F2.4387891116897126e-37
sI16316
F1.0
sI16328
F1.0
sI16332
F0.7048378669703015
sI16334
F1.0
sI16335
F0.21687441442401978
sI16337
F0.28824331813094767
sI16340
F0.6456859875479258
sI16341
F5.310475394498461e-21
sI16342
F9.34755121437765e-34
sI16346
F0.749918085777191
sI16350
F1.5548795946795978e-30
sI16352
F4.591345173148609e-71
sI16353
F1.2765291596088767e-24
sI16354
F1.156059043400826e-37
sI16356
F1.6648203096363863e-34
sI16358
F5.2636623351840764e-80
sI16360
F3.5544871697202004e-85
sI16370
F0.9811345703232995
sI16382
F0.9033799835620286
sI16386
F0.3844823913998616
sI16388
F1.0
sI16418
F7.502265929035403e-63
sI16422
F2.9212183649083785e-36
sI16424
F5.5879701920148556e-96
sI16433
F1.0657722567336708e-257
sI16434
F8.88545110646934e-50
sI16436
F1.1395870863812883e-108
sI16439
F1.633291231022933e-293
sI16440
F5.009750140293304e-84
sI16441
F0.0
sI16443
F0.40925783789012377
sI16445
F1.0
sI16449
F0.6219394447411413
sI16450
F9.65810343303963e-53
sI16458
F0.9759981324268072
sI16460
F1.0
sI16461
F0.3314936126950231
sI16462
F6.7587074623117904e-68
sI16464
F0.6252042617130611
sI16466
F1.0
sI16468
F2.8055303253807714e-101
sI16476
F0.8651434577678151
sI16478
F1.0
sI16488
F0.28239710572557797
sI16490
F1.0
sI16494
F1.5767983353298946e-69
sI16495
F3.443695891277259e-240
sI16497
F0.2957398230977295
sI16498
F1.0187999153845496e-60
sI16500
F0.7176761856471116
sI16502
F1.0
sI16504
F4.0195776626536654e-100
sI16506
F0.7559106520793234
sI16508
F1.0
sI16512
F3.006138387341363e-74
sI16513
F0.0
sI16516
F1.0229748139136992e-98
sI16518
F2.0913730679890491e-81
sI16519
F0.0
sI16524
F0.7637186041430579
sI16525
F0.5881440111194819
sI16527
F0.987223658765249
sI16529
F0.8789963834620874
sI16531
F0.10696957279751582
sI16533
F0.5374839945425474
sI16535
F0.024645305134438154
sI16538
F0.6073888615576242
sI16539
F3.9275985281827025e-24
sI16540
F2.038695603695353e-46
sI16543
F1.0
sI16545
F1.0
sI16551
F0.8601395789417684
sI16553
F0.5486109870383795
sI16556
F1.0
sI16557
F0.0018402493161907237
sI16558
F8.627182933488258e-47
sI16562
F0.8948226276407933
sI16566
F9.90006027115881e-31
sI16568
F8.786518631141054e-68
sI16569
F1.0
sI16574
F1.0
sI16579
F0.7526211470914763
sI16581
F0.9554219002397284
sI16582
F1.0
sI16587
F0.563156125880078
sI16588
F0.008835998459577535
sI16590
F0.9527722383584901
sI16592
F1.815619959241129e-50
sI16594
F9.58993450486404e-79
sI16600
F1.0
sI16605
F0.6236307648172176
sI16607
F0.007931917238384068
sI16610
F6.070840288205446e-56
sI16611
F0.5090847596308841
sI16612
F0.00778160098126488
sI16616
F1.749800579826424e-67
sI16620
F2.2615642429163465e-50
sI16623
F1.0
sI16630
F1.0
sI16634
F0.7528367816087427
sI16638
F0.8430482905139223
sI16640
F2.882159936263857e-72
sI16649
F5.916224492162166e-247
sI16652
F1.0
sI16656
F1.0
sI16659
F0.005901194321290097
sI16660
F0.15993517460524181
sI16662
F8.834235323891978e-49
sI16666
F6.097273933864359e-92
sI16668
F4.4794894843556464e-69
sI16673
F2.3158417847463393e-52
sI16675
F2.0615033583908614e-274
sI16678
F1.0
sI16687
F0.2662368550643202
sI16689
F1.0
sI16690
F1.0
sI16695
F0.8896352594271911
sI16696
F0.9038034546645892
sI16698
F1.0
sI16700
F1.0
sI16702
F7.049287097058355e-92
sI16708
F1.0
sI16713
F0.659020286214161
sI16714
F4.074071952669004e-61
sI16716
F1.0
sI16718
F1.0
sI16722
F0.9376030415989453
sI16724
F1.0
sI16728
F4.938132955636884e-77
sI16729
F7.323931180248376e-265
sI16734
F1.0
sI16744
F1.0
sI16750
F1.0
sI16752
F1.0
sI16768
F0.0978163478546574
sI16770
F0.41440821607228273
sI16771
F0.1498004574273431
sI16776
F0.375511469659348
sI16777
F1.4748489455836365e-30
sI16779
F0.11967689222856724
sI16781
F0.9467167740894888
sI16783
F3.528101186796625e-30
sI16789
F0.4707064237270159
sI16794
F0.06976141034152425
sI16795
F0.5950886406623059
sI16797
F0.4572868292820279
sI16799
F0.18285333924290173
sI16801
F1.4555747634917482e-23
sI16803
F0.357705339579956
sI16805
F0.1543823630687282
sI16808
F0.8811089298960081
sI16809
F1.0861032509049306e-22
sI16810
F8.197029659340472e-45
sI16813
F0.8922192845818232
sI16815
F0.34458603950132183
sI16816
F1.0
sI16825
F1.9212109970552089e-28
sI16831
F4.979286199607494e-33
sI16833
F0.08572215927131685
sI16834
F2.993155353253703e-35
sI16848
F0.0003210378732245318
sI16849
F0.054499784616701824
sI16851
F5.98008216632987e-132
sI16855
F1.5776036023684592e-41
sI16857
F0.00016525800057710946
sI16859
F0.0002512334541738753
sI16862
F7.339195571168293e-72
sI16863
F3.4707589678122597e-42
sI16864
F9.969655765588556e-57
sI16867
F0.0006737943006981789
sI16870
F4.271974071841854e-65
sI16875
F0.008472452976234956
sI16877
F7.252711576409954e-39
sI16880
F6.070840288205446e-56
sI16881
F5.769942690894637e-33
sI16882
F1.1740348803200238e-50
sI16886
F1.5708650498358246e-78
sI16890
F9.198484773906803e-51
sI16892
F8.471165967932703e-115
sI16893
F0.0014130129742762117
sI16894
F0.34239532908141546
sI16896
F1.4821387422376575e-53
sI16900
F1.4538132886833105e-90
sI16903
F6.633006239900995e-50
sI16906
F5.92855496895063e-54
sI16911
F0.1848464637880553
sI16912
F3.646801160886186e-60
sI16914
F6.365737426045318e-60
sI16918
F1.0779667017807998e-103
sI16933
F0.036469994408572196
sI16939
F2.5633075925928687e-46
sI16941
F0.25972572394765164
sI16942
F2.7996809277222788e-68
sI16957
F0.3361323481182087
sI16959
F0.8453324110198918
sI16960
F0.7358452371721598
sI16965
F0.40906887605966236
sI16966
F2.2858012878760474e-57
sI16968
F0.9398365146231792
sI16970
F1.0
sI16972
F2.5505043396565773e-95
sI16978
F1.0
sI17010
F0.22314833071332008
sI17011
F0.07031350598194262
sI17013
F0.501540059792134
sI17015
F0.09976623245267169
sI17017
F2.7910016667165297e-27
sI17019
F0.534403368723259
sI17021
F0.7326552296230538
sI17024
F1.0
sI17025
F5.970931111873666e-26
sI17026
F8.413316863547545e-42
sI17029
F0.027769431746242156
sI17031
F0.5698163137889469
sI17032
F0.1522548052193174
sI17037
F0.6941201322461116
sI17039
F0.6172029777179565
sI17042
F0.863130438148222
sI17043
F5.807697793112303e-21
sI17044
F9.473215233105297e-29
sI17048
F0.7180020079848257
sI17052
F2.4848605382405188e-30
sI17054
F6.771802089517273e-62
sI17055
F0.33643990588451567
sI17056
F0.9768830660162764
sI17058
F0.9999069472687627
sI17060
F5.644738833434695e-43
sI17062
F5.46321536888963e-68
sI17065
F7.281802010435597e-28
sI17067
F0.023430516520385795
sI17068
F4.6763159116285767e-35
sI17073
F0.00540693876088803
sI17074
F8.722578049016454e-37
sI17076
F0.9783384355307717
sI17078
F1.0
sI17080
F1.1005665466659665e-87
sI17086
F3.131097701089352e-70
sI17091
F0.04403094354637318
sI17093
F0.07322272151329316
sI17096
F2.3158417847463393e-52
sI17097
F3.487604453643517e-33
sI17098
F4.9344276720746625e-54
sI17102
F0.15229139367600608
sI17106
F3.5288972879789265e-45
sI17108
F1.032554250610008e-91
sI17109
F7.609838271684872e-43
sI17110
F1.198204481726279e-76
sI17112
F5.653910607290866e-50
sI17116
F4.091325615305355e-107
sI17120
F5.92855496895063e-54
sI17124
F5.0216813883093696e-40
sI17135
F7.49970552857434e-267
sI17136
F5.653910607290866e-50
sI17141
F8.424983333484623e-45
sI17143
F4.577456987655235e-264
sI17145
F0.07487606310106501
sI17146
F1.9916306198203328e-54
sI17148
F9.48568795032101e-55
sI17152
F7.714065212836025e-107
sI17154
F0.7215252630615576
sI17156
F1.0
sI17160
F9.351164048830951e-88
sI17161
F0.0
sI17164
F6.553218016187062e-107
sI17167
F2.9295724720993506e-265
sI17173
F0.2795685658420054
sI17175
F0.4892089378029519
sI17176
F0.29424772582285846
sI17181
F0.0378522043229117
sI17182
F8.970336261082856e-61
sI17184
F0.24735897004433388
sI17186
F1.0
sI17188
F2.4332210184138585e-93
sI17194
F1.0
sI17199
F0.7923566335026002
sI17200
F0.8824559939901977
sI17202
F1.0
sI17204
F1.0
sI17206
F3.555103521398421e-70
sI17208
F0.34506438108314186
sI17210
F1.0
sI17214
F3.1861283340723256e-70
sI17215
F0.0
sI17218
F1.0
sI17220
F1.0
sI17230
F2.523934984361005e-79
sI17236
F3.119551233564434e-92
sI17238
F1.1285853116183198e-66
sI17239
F1.3136657300099399e-236
sI17257
F0.03183475867709353
sI17263
F4.923518787727191e-30
sI17265
F2.433162940238996e-25
sI17266
F4.4601490397061435e-30
sI17281
F0.0437902571046057
sI17283
F0.03885199120870534
sI17284
F0.2949027433963961
sI17289
F6.58812594425201e-27
sI17290
F1.6000178070174159e-43
sI17292
F2.946684303814284e-38
sI17294
F7.869247393542293e-76
sI17296
F6.716047468273482e-85
sI17302
F1.0
sI17335
F0.11058381312047996
sI17338
F4.586997231980183e-71
sI17343
F1.2272522319622415e-41
sI17344
F2.4549564103371197e-44
sI17346
F5.789604461865848e-52
sI17350
F1.0898029252694236e-103
sI17361
F0.0047971014611453856
sI17362
F0.009993947666650342
sI17364
F9.046256971665386e-51
sI17368
F2.2190082416259607e-87
sI17370
F5.0602701754989474e-58
sI17372
F3.1383085318721765e-113
sI17375
F9.735174363988234e-289
sI17376
F1.1195647846909763e-104
sI17377
F0.0
sI17380
F1.0
sI17398
F1.177635674859645e-106
sI17401
F7.198262071269217e-109
sI17446
F3.198961039461996e-78
sI17452
F5.52524266666411e-97
sI17454
F9.687146658150357e-74
sI17455
F2.3664897968648662e-247
sI17500
F0.00546278286837793
sI17506
F0.083219924368442
sI17508
F0.08834405205840709
sI17509
F1.2967236152753305e-119
sI17524
F0.16359025157311102
sI17526
F0.5796306421509093
sI17527
F0.9295839152826777
sI17532
F0.3577668374895503
sI17533
F0.9515980506303756
sI17535
F0.5236655644309758
sI17537
F0.7277827223864469
sI17539
F0.29916199311267627
sI17545
F0.26191182639838934
sI17578
F0.6090055095010609
sI17580
F0.559851889611316
sI17581
F0.8591829554056339
sI17586
F0.054616501789859426
sI17587
F0.9675019055463875
sI17589
F0.45444963887291123
sI17591
F0.428660535611718
sI17593
F0.8538019913468311
sI17599
F0.7237032952707821
sI17604
F0.07701828650648294
sI17605
F0.8610412826525881
sI17607
F0.11355745350405347
sI17609
F0.007739767117142877
sI17611
F0.05829329370191093
sI17613
F0.12728529669271418
sI17615
F0.004310594162304046
sI17618
F0.7117908322818642
sI17619
F0.04996903386398145
sI17620
F0.9400314542071637
sI17623
F0.015360064322139943
sI17625
F0.1907835897351296
sI17626
F1.0
sI17635
F0.10610551391731629
sI17641
F0.05945682406442947
sI17643
F0.006040812354138189
sI17644
F3.7053468555941432e-53
sI17689
F0.6254341709264591
sI17695
F0.8415634821477121
sI17697
F0.05573028914715443
sI17698
F3.2138760885179975e-41
sI17740
F0.6053580572117576
sI17742
F0.2525205747998138
sI17743
F0.8578831610393799
sI17748
F0.4054810570570482
sI17749
F0.3070910066244214
sI17751
F0.2434985504531596
sI17753
F0.33547858000812963
sI17755
F0.18630358292908797
sI17761
F0.11153011198488325
sI17766
F0.45406251572404344
sI17767
F0.9077601608517923
sI17769
F0.5022562850772835
sI17771
F0.12127691151563422
sI17773
F0.7344018859391332
sI17775
F0.952893928352772
sI17777
F0.9536795624842488
sI17780
F1.0
sI17781
F0.6164100305671265
sI17782
F1.0
sI17785
F0.02840665754037249
sI17787
F0.5665897107890202
sI17788
F0.9432275090664898
sI17797
F0.4790088764655634
sI17803
F0.0635579935259688
sI17805
F0.014637387105874849
sI17806
F7.846377169233389e-39
sI17820
F0.055506422093153804
sI17821
F0.11201634082946235
sI17823
F0.9820715732540704
sI17825
F0.2990660243592486
sI17827
F1.0415630389185749e-07
sI17829
F0.5218284439903648
sI17831
F0.2391848199352154
sI17834
F0.9614417538629295
sI17835
F0.7617702904987432
sI17836
F0.9554518472941158
sI17839
F0.5484304571861942
sI17841
F0.01624846756888924
sI17842
F0.9038368187505131
sI17847
F2.6931895815928183e-142
sI17852
F3.138550867693356e-39
sI17854
F3.0649910817317916e-37
sI17858
F5.39198933343016e-46
sI17862
F2.9230032746618187e-33
sI17866
F1.447401115466462e-51
sI17868
F9.48568795032101e-55
sI17875
F0.05998201109985679
sI17877
F0.17503076979414045
sI17878
F0.7154417805092629
sI17883
F0.17939841018557906
sI17884
F0.09649238845341379
sI17886
F0.9969507674733505
sI17888
F1.4228569083237969e-61
sI17890
F1.3424232487436026e-82
sI17896
F1.4200211818134913e-87
sI17905
F0.00018191532433357074
sI17911
F0.0190780162016929
sI17913
F0.2815819312543962
sI17914
F4.074071952669004e-61
sI17929
F0.07541522779341825
sI17931
F0.9052894747262722
sI17932
F0.9784843215687731
sI17937
F1.0
sI17938
F1.0
sI17940
F1.0
sI17942
F1.0
sI17944
F1.0
sI17950
F1.3198567418274636e-71
sI18013
F0.14153720990035873
sI18019
F0.002436535441912105
sI18021
F0.039150669818704326
sI18022
F1.66153499473115e-24
sI18067
F0.9428698750151633
sI18073
F0.03728033319119404
sI18075
F0.18176685423962483
sI18076
F2.2615642429163465e-50
sI18091
F0.6350948566407438
sI18093
F0.9419287113405672
sI18094
F1.0
sI18099
F0.43313398285205373
sI18100
F0.984634002072764
sI18102
F0.7204336058277238
sI18104
F2.372044831283712e-91
sI18106
F1.6394188025998356e-80
sI18112
F1.0
sI18226
F0.0423600871294119
sI18228
F0.21164907591136634
sI18229
F0.04287003573984116
sI18234
F0.30009582117570166
sI18235
F0.061423846693491164
sI18237
F0.4684412510233327
sI18239
F0.5960020795741661
sI18241
F0.19538377275964874
sI18247
F0.08161414384265242
sI18252
F0.10378714743038644
sI18253
F1.0474849945267791e-101
sI18255
F0.6320376753292516
sI18257
F0.23239614899344957
sI18261
F0.38777080078621395
sI18263
F0.5328075929602607
sI18266
F0.7215115149512571
sI18267
F0.1895097303503115
sI18268
F4.7890485652059244e-36
sI18273
F0.687795562033489
sI18274
F2.208558830972994e-48
sI18283
F8.330360719735791e-29
sI18289
F1.75355410666498e-28
sI18291
F3.0753326691089517e-31
sI18292
F2.9230032746618187e-33
sI18306
F0.026076022998840175
sI18307
F0.022706898136847807
sI18309
F0.4002789327531493
sI18311
F6.171966018717365e-51
sI18313
F2.2082943304936525e-46
sI18315
F4.109481173084744e-139
sI18320
F1.042962419883265e-62
sI18322
F9.94646472819581e-59
sI18325
F4.808723732132641e-05
sI18327
F0.039097116485725204
sI18328
F0.736023387477921
sI18333
F0.044050448886110774
sI18335
F1.4528106465467477e-37
sI18338
F6.64778284297179e-64
sI18339
F9.41430555108912e-31
sI18340
F2.1062458333711557e-44
sI18344
F9.263367138985358e-53
sI18348
F5.789604461865848e-52
sI18351
F0.0974977363400355
sI18352
F1.5541351137805946e-57
sI18354
F0.8590335310005135
sI18356
F1.1642827579108763e-103
sI18361
F4.357670671744887e-42
sI18363
F7.754263901539946e-35
sI18364
F1.7661571751664148e-43
sI18370
F6.2165404551223794e-58
sI18372
F9.263367138985358e-53
sI18382
F6.5268126672588675e-93
sI18391
F5.425759382413268e-36
sI18397
F0.02605514547857049
sI18399
F0.6289308450560218
sI18400
F5.521397077432485e-48
sI18417
F0.7216027005694432
sI18418
F2.3158417847463393e-52
sI18423
F0.4936393937799787
sI18424
F4.37450144956606e-67
sI18426
F0.7595926746296698
sI18428
F1.0
sI18468
F0.39090526168963435
sI18469
F0.1466862830907717
sI18471
F0.1575795786150752
sI18473
F0.33649649749821603
sI18475
F0.2456821060890758
sI18477
F0.47555849923600313
sI18479
F0.6818061784451368
sI18482
F0.15877156857485933
sI18483
F0.44119875187935875
sI18484
F0.1584623253161952
sI18487
F5.3490046470186436e-33
sI18489
F8.96005392371927e-26
sI18490
F1.645714595558816e-39
sI18495
F0.68747748968692
sI18497
F0.4977249780628995
sI18500
F0.09986568320165451
sI18501
F0.0011881870596394538
sI18502
F7.482888383134257e-35
sI18506
F0.38454094746216627
sI18510
F0.30397457540989015
sI18512
F3.525027099672593e-57
sI18513
F6.968606879783178e-24
sI18514
F7.66247770432948e-37
sI18516
F5.204535067287162e-42
sI18518
F7.6960766535635e-75
sI18523
F3.722987266995961e-29
sI18525
F3.280667968148624e-27
sI18526
F3.95133417293835e-31
sI18531
F4.32079826391371e-28
sI18532
F2.7013932769079328e-55
sI18534
F1.5602291480246906e-43
sI18536
F1.3863648222196853e-85
sI18538
F7.62983062930125e-86
sI18544
F1.2024541139257357e-74
sI18549
F5.3567644839923695e-43
sI18551
F3.7166057113739457e-44
sI18554
F9.474944768777653e-70
sI18555
F2.1553958772569312e-43
sI18556
F1.221125049676929e-70
sI18560
F5.653910607290866e-50
sI18564
F5.265614583427888e-44
sI18567
F5.383359127881079e-44
sI18568
F5.313013681987035e-52
sI18570
F1.916869356517127e-57
sI18572
F4.671968919450085e-111
sI18574
F4.727818528409626e-107
sI18578
F2.3158417847463393e-52
sI18582
F3.7053468555941432e-53
sI18593
F3.9785858912783238e-59
sI18594
F9.263367138985358e-53
sI18599
F6.084483977492646e-288
sI18601
F2.8793048285076866e-109
sI18603
F2.5734002869030034e-43
sI18604
F1.7035127095242817e-56
sI18606
F1.0070820054362257e-48
sI18608
F7.432057777176724e-111
sI18610
F9.663437462679731e-107
sI18612
F3.8853377844514866e-57
sI18617
F1.6652691511463604e-256
sI18619
F1.288439598994288e-273
sI18622
F9.607446412114984e-107
sI18624
F1.8169380559642866e-106
sI18625
F0.0
sI18631
F0.18222064480071126
sI18633
F0.4384047229172119
sI18634
F2.435098516985736e-60
sI18639
F0.7368570825357444
sI18640
F0.15097974265373726
sI18642
F0.7191305997126369
sI18644
F1.0
sI18646
F1.0
sI18652
F1.5003311136574682e-92
sI18657
F0.8893139009386413
sI18658
F1.749800579826424e-67
sI18660
F0.742181611401805
sI18662
F1.0
sI18666
F1.0
sI18668
F1.0
sI18672
F1.0
sI18678
F2.921740129985501e-75
sI18679
F8.407460672063615e-238
sI18688
F1.5794104008429675e-94
sI18694
F1.6420775890357773e-92
sI18696
F5.5786076398825714e-89
sI18697
F2.0615033583908614e-274
sI18715
F0.09620068155450998
sI18721
F6.074222683502122e-27
sI18723
F4.1294649133110807e-26
sI18724
F6.805647338418793e-27
sI18741
F0.02348650368298695
sI18742
F8.227522786606075e-43
sI18747
F2.3496126410402912e-26
sI18748
F2.9230032746618187e-33
sI18750
F3.078167814109759e-46
sI18752
F1.2341920941485001e-70
sI18793
F0.5810586083858745
sI18795
F0.25264496635916783
sI18796
F0.9964960396563071
sI18802
F2.3158417847463393e-52
sI18804
F9.94646472819581e-59
sI18814
F1.0
sI18819
F0.0015413428038647627
sI18820
F6.2165404551223794e-58
sI18822
F0.9365877317407058
sI18824
F2.7976472811929605e-97
sI18828
F2.4283361152821786e-56
sI18833
F1.0657722567336708e-257
sI18835
F1.32211193758051e-82
sI18840
F1.0
sI18850
F1.2247232504381122e-87
sI18859
F9.085484053695185e-90
sI18912
F3.5215543038027937e-74
sI18913
F3.078281734093347e-76
sI18985
F1.0
sI18991
F1.0
sI18993
F1.0
sI19039
F1.0
sI19045
F1.0
sI19047
F1.0
sI19063
F1.0
sI19065
F1.0
sI19071
F1.0
sI19076
F1.0
sI19078
F1.0
sI19084
F1.0
sI19201
F1.0
sI19207
F1.0
sI19209
F1.0
sI19225
F1.0
sI19227
F1.0
sI19233
F1.0
sI19238
F1.0
sI19240
F1.0
sI19246
F1.0
sI19279
F1.0
sI19281
F1.0
sI19287
F1.0
sI19292
F1.0
sI19294
F1.0
sI19300
F1.0
sI19336
F1.0
sI19342
F1.0
sI19344
F1.0
sI19390
F1.0
sI19396
F1.0
sI19398
F1.0
sI19552
F1.0
sI19558
F1.0
sI19560
F1.0
s.